Certificate:
    Data:
        Version: 3 (0x2)
        Serial Number: 1 (0x1)
        Signature Algorithm: sha1WithRSAEncryption
        Issuer: C=CH, ST=Zurich, L=Zurich, O=iMovies, OU=CA, CN=CA
        Validity
            Not Before: Nov 22 09:58:33 2017 GMT
            Not After : Nov 22 09:58:33 2018 GMT
        Subject: C=CH, ST=Zurich, O=iMovies, OU=Administration, CN=192.168.51.14
        Subject Public Key Info:
            Public Key Algorithm: rsaEncryption
            RSA Public Key: (2048 bit)
                Modulus (2048 bit):
                    00:ce:a7:45:53:ed:17:5b:45:51:cf:49:b9:ee:4d:
                    dd:4e:a8:7f:ad:3d:ea:85:50:64:1e:ce:a7:39:cf:
                    bd:b1:97:02:b7:61:cc:58:2e:c4:30:13:bb:99:ec:
                    d6:90:11:79:8d:c7:35:54:62:a3:e7:62:14:06:ce:
                    07:e3:71:80:f7:2a:8d:66:26:0f:66:2f:62:0e:78:
                    32:54:8f:de:2e:12:2c:ca:5c:02:33:c1:09:8c:7e:
                    60:b7:ea:00:91:29:7c:bb:3b:2b:f6:82:f3:c6:b5:
                    a7:2a:32:84:39:f2:e2:7f:62:9d:5b:21:2a:84:49:
                    fc:76:b8:3e:42:79:35:76:f2:4c:8c:ac:12:33:4f:
                    64:bf:14:36:19:a8:f9:e1:88:df:be:83:7d:fc:50:
                    d1:9a:42:c3:cc:17:b0:7d:cb:2f:ed:94:46:ac:47:
                    10:53:a8:88:1f:73:78:fa:71:1f:4e:cc:89:c0:78:
                    df:2d:d2:17:bf:bf:40:ea:23:0e:a1:8f:85:9d:5b:
                    af:13:22:3c:70:de:4a:ac:d3:a7:02:9a:ed:a4:76:
                    87:ac:4d:62:98:bc:11:6c:82:ce:33:b3:64:b0:cc:
                    6a:61:c3:79:f3:b0:c8:39:fa:bc:29:14:df:1d:9e:
                    6e:bf:c5:93:3a:ff:9e:79:ca:67:fb:ea:ca:d4:6c:
                    e1:f5
                Exponent: 65537 (0x10001)
        X509v3 extensions:
            X509v3 Basic Constraints: 
                CA:FALSE
            X509v3 Key Usage: 
                Digital Signature, Non Repudiation, Key Encipherment
            X509v3 Subject Alternative Name: 
                DNS:imovies.com, DNS:www.imovies.com, IP Address:192.168.70.10
    Signature Algorithm: sha1WithRSAEncryption
        4f:e5:ea:51:d8:a6:ce:1c:bf:8b:41:52:ec:39:12:63:eb:b9:
        ee:b8:94:f4:ad:08:11:19:27:b3:25:e0:83:70:a8:a4:f2:bb:
        63:4a:87:43:cb:a8:f9:d2:c8:ca:3f:0f:b8:3b:de:60:2f:93:
        45:61:a3:51:10:0e:95:f8:93:60:ce:1d:81:e5:b5:f4:d7:df:
        09:f8:53:5d:b2:22:58:82:81:95:70:27:ec:52:0e:d0:9f:5f:
        77:22:b7:84:60:9b:a1:ea:5e:3e:8a:54:aa:2f:1a:bd:08:18:
        8c:3d:bb:72:93:e3:33:6f:36:78:53:ed:63:e7:7b:2d:7f:98:
        ac:96:ed:32:47:37:7c:3e:af:40:cb:13:75:d6:5f:c6:aa:1a:
        27:7f:11:ee:82:89:c0:87:12:74:74:6f:10:fc:6d:36:c4:59:
        bf:c4:5e:37:ab:31:e7:99:04:48:66:e4:79:21:16:a5:1f:c3:
        9d:57:c1:37:0e:cb:7a:6c:d4:3a:26:18:a3:c1:fa:49:a0:52:
        40:e7:68:fb:a3:71:9b:c1:22:99:62:c3:cf:18:4e:f1:4c:fc:
        17:c5:7c:84:43:fd:90:f5:23:cd:da:f8:7a:32:6c:79:c4:c3:
        d8:5a:0c:32:81:36:fb:bd:19:5e:35:c8:39:2f:ba:b9:ae:76:
        97:97:3e:65
-----BEGIN CERTIFICATE-----
MIIDgDCCAmigAwIBAgIBATANBgkqhkiG9w0BAQUFADBbMQswCQYDVQQGEwJDSDEP
MA0GA1UECAwGWnVyaWNoMQ8wDQYDVQQHDAZadXJpY2gxEDAOBgNVBAoMB2lNb3Zp
ZXMxCzAJBgNVBAsMAkNBMQswCQYDVQQDDAJDQTAeFw0xNzExMjIwOTU4MzNaFw0x
ODExMjIwOTU4MzNaMGExCzAJBgNVBAYTAkNIMQ8wDQYDVQQIDAZadXJpY2gxEDAO
BgNVBAoMB2lNb3ZpZXMxFzAVBgNVBAsMDkFkbWluaXN0cmF0aW9uMRYwFAYDVQQD
DA0xOTIuMTY4LjUxLjE0MIIBIjANBgkqhkiG9w0BAQEFAAOCAQ8AMIIBCgKCAQEA
zqdFU+0XW0VRz0m57k3dTqh/rT3qhVBkHs6nOc+9sZcCt2HMWC7EMBO7mezWkBF5
jcc1VGKj52IUBs4H43GA9yqNZiYPZi9iDngyVI/eLhIsylwCM8EJjH5gt+oAkSl8
uzsr9oLzxrWnKjKEOfLif2KdWyEqhEn8drg+Qnk1dvJMjKwSM09kvxQ2Gaj54Yjf
voN9/FDRmkLDzBewfcsv7ZRGrEcQU6iIH3N4+nEfTsyJwHjfLdIXv79A6iMOoY+F
nVuvEyI8cN5KrNOnAprtpHaHrE1imLwRbILOM7NksMxqYcN587DIOfq8KRTfHZ5u
v8WTOv+eecpn++rK1Gzh9QIDAQABo0kwRzAJBgNVHRMEAjAAMAsGA1UdDwQEAwIF
4DAtBgNVHREEJjAkggtpbW92aWVzLmNvbYIPd3d3Lmltb3ZpZXMuY29thwTAqEYK
MA0GCSqGSIb3DQEBBQUAA4IBAQBP5epR2KbOHL+LQVLsORJj67nuuJT0rQgRGSez
JeCDcKik8rtjSodDy6j50sjKPw+4O95gL5NFYaNREA6V+JNgzh2B5bX0198J+FNd
siJYgoGVcCfsUg7Qn193IreEYJuh6l4+ilSqLxq9CBiMPbtyk+MzbzZ4U+1j53st
f5islu0yRzd8Pq9AyxN11l/GqhonfxHugonAhxJ0dG8Q/G02xFm/xF43qzHnmQRI
ZuR5IRalH8OdV8E3Dst6bNQ6JhijwfpJoFJA52j7o3GbwSKZYsPPGE7xTPwXxXyE
Q/2Q9SPN2vh6Mmx5xMPYWgwygTb7vRleNcg5L7q5rnaXlz5l
-----END CERTIFICATE-----
