Certificate:
    Data:
        Version: 3 (0x2)
        Serial Number: 1 (0x1)
        Signature Algorithm: sha1WithRSAEncryption
        Issuer: C=CH, ST=Zurich, L=Zurich, O=iMovies, OU=CA, CN=CA
        Validity
            Not Before: Nov 21 21:59:10 2017 GMT
            Not After : Nov 21 21:59:10 2018 GMT
        Subject: C=CH, ST=Zurich, O=iMovies, OU=Administration, CN=192.168.51.14
        Subject Public Key Info:
            Public Key Algorithm: rsaEncryption
            RSA Public Key: (2048 bit)
                Modulus (2048 bit):
                    00:d0:a4:c6:3e:bf:47:1e:be:2f:26:e1:29:b4:7a:
                    8b:1a:d0:db:2a:76:86:1e:3d:54:7d:c6:72:8d:76:
                    1a:d6:93:c1:cb:2a:6d:15:02:5f:d4:7c:61:82:b0:
                    ad:10:de:2d:80:2f:54:1e:0e:cd:60:3f:0e:20:3e:
                    dc:fd:ce:61:02:f1:9e:65:a7:27:36:7b:eb:12:40:
                    aa:70:ee:d2:ad:e4:70:10:b8:ec:e3:4e:1d:33:0e:
                    a7:75:9a:53:73:38:0b:31:7e:bf:f4:79:1e:38:6c:
                    a2:b5:7b:55:4b:95:ba:8e:2d:8b:05:34:18:9c:ab:
                    3f:ee:9c:95:f5:46:f4:f9:6e:8f:5c:56:52:87:03:
                    40:17:01:67:2f:ef:1a:9c:a0:56:d5:b9:c5:a9:4e:
                    05:20:34:69:91:2a:9b:ee:4d:39:ca:cf:7e:d4:11:
                    9a:3d:d0:65:d2:6f:42:d5:39:6a:aa:d3:46:70:83:
                    e9:f4:dc:a5:0a:24:b2:0f:b9:83:97:dc:43:6e:e4:
                    19:95:ea:4a:36:3f:68:34:cb:f6:fc:51:a2:1a:99:
                    31:65:af:10:6c:54:60:8d:ce:10:13:7b:0b:be:d5:
                    44:3b:7f:62:38:dc:f3:f9:e2:d7:28:b2:9b:3f:1b:
                    c6:bc:de:d7:4f:c0:44:0f:d1:b7:0b:df:aa:d2:e6:
                    46:e1
                Exponent: 65537 (0x10001)
        X509v3 extensions:
            X509v3 Basic Constraints: 
                CA:FALSE
            X509v3 Key Usage: 
                Digital Signature, Non Repudiation, Key Encipherment
            X509v3 Subject Alternative Name: 
                DNS:192.168.70.10
    Signature Algorithm: sha1WithRSAEncryption
        42:89:2b:f5:eb:57:23:79:4a:0b:ac:a2:bd:91:8e:c9:a5:e3:
        84:50:a3:f1:42:98:cc:b6:23:04:30:fb:08:04:ec:51:29:33:
        42:3e:b7:1d:13:ff:2e:7f:cf:62:e0:90:f1:06:5f:db:14:4a:
        a4:51:23:96:c1:c7:42:67:7e:59:c3:41:df:ef:06:53:b3:22:
        46:2a:f4:52:f5:62:55:8b:08:53:8f:56:16:12:47:ca:03:fa:
        9a:08:63:c4:e4:60:ed:65:86:c9:e2:1a:06:6c:a9:9d:06:ce:
        34:a9:f0:77:77:fc:f7:cc:d8:c8:c9:c0:68:72:38:bd:c6:49:
        a9:e9:ce:b8:41:33:2c:05:f9:65:c6:f1:6e:34:dd:01:b2:98:
        a2:95:54:b4:e3:6e:ae:99:21:80:e0:8a:89:e7:67:07:06:1e:
        e2:fb:29:9d:ae:53:6f:50:e6:54:b8:4e:52:ac:3e:b3:3d:a4:
        55:b6:3f:3e:54:06:ee:a4:b2:55:7f:02:cb:03:cd:2b:2b:76:
        b0:f5:90:50:98:71:12:9a:0f:86:45:8b:df:1e:d3:c9:3f:67:
        df:b4:70:88:40:3e:9c:51:a0:fc:1d:c2:f0:cf:4a:84:8d:50:
        b9:95:1d:e3:8f:5b:77:ee:64:f5:34:1f:57:fa:a4:5c:a5:94:
        84:36:fd:cb
-----BEGIN CERTIFICATE-----
MIIDazCCAlOgAwIBAgIBATANBgkqhkiG9w0BAQUFADBbMQswCQYDVQQGEwJDSDEP
MA0GA1UECAwGWnVyaWNoMQ8wDQYDVQQHDAZadXJpY2gxEDAOBgNVBAoMB2lNb3Zp
ZXMxCzAJBgNVBAsMAkNBMQswCQYDVQQDDAJDQTAeFw0xNzExMjEyMTU5MTBaFw0x
ODExMjEyMTU5MTBaMGExCzAJBgNVBAYTAkNIMQ8wDQYDVQQIDAZadXJpY2gxEDAO
BgNVBAoMB2lNb3ZpZXMxFzAVBgNVBAsMDkFkbWluaXN0cmF0aW9uMRYwFAYDVQQD
DA0xOTIuMTY4LjUxLjE0MIIBIjANBgkqhkiG9w0BAQEFAAOCAQ8AMIIBCgKCAQEA
0KTGPr9HHr4vJuEptHqLGtDbKnaGHj1UfcZyjXYa1pPByyptFQJf1HxhgrCtEN4t
gC9UHg7NYD8OID7c/c5hAvGeZacnNnvrEkCqcO7SreRwELjs404dMw6ndZpTczgL
MX6/9HkeOGyitXtVS5W6ji2LBTQYnKs/7pyV9Ub0+W6PXFZShwNAFwFnL+8anKBW
1bnFqU4FIDRpkSqb7k05ys9+1BGaPdBl0m9C1TlqqtNGcIPp9NylCiSyD7mDl9xD
buQZlepKNj9oNMv2/FGiGpkxZa8QbFRgjc4QE3sLvtVEO39iONzz+eLXKLKbPxvG
vN7XT8BED9G3C9+q0uZG4QIDAQABozQwMjAJBgNVHRMEAjAAMAsGA1UdDwQEAwIF
4DAYBgNVHREEETAPgg0xOTIuMTY4LjcwLjEwMA0GCSqGSIb3DQEBBQUAA4IBAQBC
iSv161cjeUoLrKK9kY7JpeOEUKPxQpjMtiMEMPsIBOxRKTNCPrcdE/8uf89i4JDx
Bl/bFEqkUSOWwcdCZ35Zw0Hf7wZTsyJGKvRS9WJViwhTj1YWEkfKA/qaCGPE5GDt
ZYbJ4hoGbKmdBs40qfB3d/z3zNjIycBocji9xkmp6c64QTMsBfllxvFuNN0Bspii
lVS0426umSGA4IqJ52cHBh7i+ymdrlNvUOZUuE5SrD6zPaRVtj8+VAbupLJVfwLL
A80rK3aw9ZBQmHESmg+GRYvfHtPJP2fftHCIQD6cUaD8HcLwz0qEjVC5lR3jj1t3
7mT1NB9X+qRcpZSENv3L
-----END CERTIFICATE-----
