Certificate:
    Data:
        Version: 3 (0x2)
        Serial Number: 2 (0x2)
        Signature Algorithm: sha1WithRSAEncryption
        Issuer: C=CH, ST=Zurich, L=Zurich, O=iMovies, OU=CA, CN=CA
        Validity
            Not Before: Nov 21 22:01:57 2017 GMT
            Not After : Nov 21 22:01:57 2018 GMT
        Subject: C=CH, ST=Zurich, O=iMovies, OU=Administration, CN=192.168.50.50
        Subject Public Key Info:
            Public Key Algorithm: rsaEncryption
            RSA Public Key: (2048 bit)
                Modulus (2048 bit):
                    00:97:6c:8c:ac:c7:bf:10:91:dc:07:10:45:a9:18:
                    70:f7:97:65:af:9c:fe:14:2b:36:f3:6d:da:19:51:
                    6f:0e:16:c1:91:77:b1:6b:b1:77:b3:0f:84:af:de:
                    9f:1d:d5:7a:02:fd:02:18:66:ce:7a:53:96:56:c3:
                    e9:6a:5d:cf:f3:58:f8:74:60:b9:bf:7f:b1:92:78:
                    1f:69:9c:3b:c3:a7:4c:b3:9b:6d:61:41:ad:1c:4c:
                    a1:c1:a7:fd:6e:66:6b:9d:7e:71:94:c9:58:bb:52:
                    c9:1f:fe:a4:ea:17:0d:f1:51:03:43:88:3a:36:0f:
                    69:f3:43:b2:c2:f7:24:83:29:6e:f0:87:35:03:11:
                    e6:5a:00:d1:9e:9d:cb:15:34:82:94:47:1d:36:02:
                    6f:f8:ef:59:bc:9c:0a:17:3f:4d:15:a7:37:75:19:
                    8e:62:8f:3a:85:aa:f0:55:0f:89:a1:72:20:61:0e:
                    ee:31:ba:c6:db:4d:b8:07:2c:6b:75:f5:c4:39:72:
                    a8:87:af:93:40:88:94:74:e6:02:09:c1:40:e6:1c:
                    80:32:fb:f3:94:66:cd:86:b1:a6:bc:4f:ed:47:ed:
                    66:8a:bd:b4:b2:45:80:7e:a5:42:82:c7:c8:3a:ec:
                    dd:77:c9:26:0a:28:ce:a9:86:60:15:8a:88:62:cf:
                    cd:bb
                Exponent: 65537 (0x10001)
        X509v3 extensions:
            X509v3 Basic Constraints: 
                CA:FALSE
            Netscape Comment: 
                OpenSSL Generated Certificate
            X509v3 Subject Key Identifier: 
                F5:4E:E8:14:42:6C:1F:5F:92:56:A0:0E:9E:E8:87:6A:71:59:A2:08
            X509v3 Authority Key Identifier: 
                keyid:C0:2C:B3:C6:96:26:48:D2:12:34:D0:37:AF:84:16:12:5B:FE:91:D7

    Signature Algorithm: sha1WithRSAEncryption
        07:27:28:42:07:03:e4:4a:46:8a:5a:55:f2:cb:67:dc:1b:c6:
        57:06:b5:62:f5:25:f5:a5:65:d9:5c:eb:42:9c:80:5a:d3:88:
        c3:c1:be:22:f3:e0:d9:f0:1b:af:9f:1f:79:3f:9c:16:6e:ba:
        f6:67:a5:78:de:c2:f2:a8:07:3a:86:e6:da:04:34:78:bf:1d:
        f8:15:ee:f8:d1:82:bb:d7:0c:d3:f1:72:0a:06:47:1a:f5:7b:
        4c:e7:fa:b0:ac:3c:96:29:4d:34:87:6a:29:1a:51:0e:4d:50:
        cd:3b:9a:b8:8f:ed:6d:58:1b:20:1f:da:8c:df:46:5e:3e:e8:
        d6:9c:e4:28:11:a6:0a:92:43:40:c1:b3:fb:a4:95:bd:9d:f0:
        73:33:23:ad:f6:48:23:25:81:76:0b:34:7f:47:b1:c3:99:f9:
        ff:2e:e4:de:40:41:1b:d6:b1:39:e7:9e:cf:f6:c2:17:11:e7:
        6a:5e:97:45:94:62:21:d8:89:3c:86:92:bb:61:01:ce:4d:f2:
        57:6b:43:05:08:7a:c7:c2:47:51:61:e4:0b:4a:5d:19:1e:be:
        1c:aa:94:ab:cb:37:3b:67:cf:f2:1a:1e:96:06:9c:7c:ba:e5:
        58:c2:0b:cf:79:bc:71:6a:d5:04:f6:80:06:44:de:11:be:c2:
        56:ac:e5:16
-----BEGIN CERTIFICATE-----
MIIDsjCCApqgAwIBAgIBAjANBgkqhkiG9w0BAQUFADBbMQswCQYDVQQGEwJDSDEP
MA0GA1UECAwGWnVyaWNoMQ8wDQYDVQQHDAZadXJpY2gxEDAOBgNVBAoMB2lNb3Zp
ZXMxCzAJBgNVBAsMAkNBMQswCQYDVQQDDAJDQTAeFw0xNzExMjEyMjAxNTdaFw0x
ODExMjEyMjAxNTdaMGExCzAJBgNVBAYTAkNIMQ8wDQYDVQQIDAZadXJpY2gxEDAO
BgNVBAoMB2lNb3ZpZXMxFzAVBgNVBAsMDkFkbWluaXN0cmF0aW9uMRYwFAYDVQQD
DA0xOTIuMTY4LjUwLjUwMIIBIjANBgkqhkiG9w0BAQEFAAOCAQ8AMIIBCgKCAQEA
l2yMrMe/EJHcBxBFqRhw95dlr5z+FCs2823aGVFvDhbBkXexa7F3sw+Er96fHdV6
Av0CGGbOelOWVsPpal3P81j4dGC5v3+xkngfaZw7w6dMs5ttYUGtHEyhwaf9bmZr
nX5xlMlYu1LJH/6k6hcN8VEDQ4g6Ng9p80Oywvckgylu8Ic1AxHmWgDRnp3LFTSC
lEcdNgJv+O9ZvJwKFz9NFac3dRmOYo86harwVQ+JoXIgYQ7uMbrG2024ByxrdfXE
OXKoh6+TQIiUdOYCCcFA5hyAMvvzlGbNhrGmvE/tR+1mir20skWAfqVCgsfIOuzd
d8kmCijOqYZgFYqIYs/NuwIDAQABo3sweTAJBgNVHRMEAjAAMCwGCWCGSAGG+EIB
DQQfFh1PcGVuU1NMIEdlbmVyYXRlZCBDZXJ0aWZpY2F0ZTAdBgNVHQ4EFgQU9U7o
FEJsH1+SVqAOnuiHanFZoggwHwYDVR0jBBgwFoAUwCyzxpYmSNISNNA3r4QWElv+
kdcwDQYJKoZIhvcNAQEFBQADggEBAAcnKEIHA+RKRopaVfLLZ9wbxlcGtWL1JfWl
Zdlc60KcgFrTiMPBviLz4NnwG6+fH3k/nBZuuvZnpXjewvKoBzqG5toENHi/HfgV
7vjRgrvXDNPxcgoGRxr1e0zn+rCsPJYpTTSHaikaUQ5NUM07mriP7W1YGyAf2ozf
Rl4+6Nac5CgRpgqSQ0DBs/uklb2d8HMzI632SCMlgXYLNH9HscOZ+f8u5N5AQRvW
sTnnns/2whcR52pel0WUYiHYiTyGkrthAc5N8ldrQwUIesfCR1Fh5AtKXRkevhyq
lKvLNztnz/IaHpYGnHy65VjCC895vHFq1QT2gAZE3hG+wlas5RY=
-----END CERTIFICATE-----
