Certificate:
    Data:
        Version: 3 (0x2)
        Serial Number: 2 (0x2)
        Signature Algorithm: sha1WithRSAEncryption
        Issuer: C=CH, ST=Zurich, L=Zurich, O=iMovies, OU=CA, CN=CA
        Validity
            Not Before: Nov 20 17:10:32 2017 GMT
            Not After : Nov 20 17:10:32 2018 GMT
        Subject: C=CH, ST=Zurich, O=iMovies, OU=Infrastructure, CN=192.168.50.31
        Subject Public Key Info:
            Public Key Algorithm: rsaEncryption
            RSA Public Key: (2048 bit)
                Modulus (2048 bit):
                    00:c6:d3:9d:e1:db:3d:cc:e0:e0:07:8e:55:c3:74:
                    97:26:e6:66:f2:0b:fe:26:e1:0d:97:b9:d8:91:ca:
                    7b:8f:bb:fd:d2:11:c3:25:52:35:be:04:d0:94:22:
                    ce:4b:34:85:df:0c:63:58:b0:d1:5b:c6:1e:01:00:
                    93:12:7e:25:c3:af:46:35:5a:53:eb:43:91:8e:6b:
                    e2:3e:e5:0d:19:b6:6f:11:f7:fc:6a:50:58:5f:59:
                    4e:c9:cd:03:fc:c1:64:fa:5b:9b:de:4b:0a:94:5a:
                    30:dd:17:54:ac:88:d0:f5:64:f9:81:80:12:fd:11:
                    6f:88:13:be:bb:d2:eb:11:19:c9:88:7b:05:d8:2a:
                    cb:f6:f3:fb:56:e8:33:cc:94:44:73:34:4b:6f:ba:
                    df:ef:10:f0:56:9f:d9:e3:94:9c:10:a6:fa:ef:11:
                    07:ac:e5:b1:19:ea:84:b9:fa:78:94:c8:ad:46:a6:
                    b3:a4:6c:4f:57:de:15:53:1f:01:4d:bb:c0:5d:a1:
                    ad:33:43:6c:4f:eb:e8:21:09:4a:da:45:e9:4e:02:
                    c8:fa:42:b0:95:1b:c9:e8:06:98:68:26:2d:b6:ed:
                    17:0a:2f:16:7b:05:10:c1:ab:de:56:61:c6:d9:04:
                    c5:9c:b2:b7:c6:61:5e:d6:8e:14:56:50:ed:05:fa:
                    5c:cb
                Exponent: 65537 (0x10001)
        X509v3 extensions:
            X509v3 Basic Constraints: 
                CA:FALSE
            Netscape Comment: 
                OpenSSL Generated Certificate
            X509v3 Subject Key Identifier: 
                F7:C6:51:99:05:30:61:6F:E4:F0:5A:E5:68:9E:DE:5F:73:70:3B:FF
            X509v3 Authority Key Identifier: 
                keyid:C0:2C:B3:C6:96:26:48:D2:12:34:D0:37:AF:84:16:12:5B:FE:91:D7

    Signature Algorithm: sha1WithRSAEncryption
        3b:13:b8:0f:61:85:a9:27:d4:88:5d:29:9e:b4:02:21:aa:57:
        16:b6:e9:e2:10:dc:16:fb:0e:72:59:c3:3b:2d:68:21:e4:61:
        bd:00:7c:53:da:2e:4c:9f:0f:e3:05:8b:6b:e5:a7:b2:9b:84:
        07:de:3b:1f:e4:1d:01:0f:29:6b:54:71:1f:24:75:69:63:68:
        eb:3c:72:d2:3e:c1:5f:ad:3a:9d:e3:43:56:43:a2:78:ca:b8:
        e2:5e:d0:5e:49:a2:74:94:31:05:f0:2f:58:5b:ce:c1:ae:2e:
        88:ed:e8:6a:dc:25:5a:fa:a1:35:f4:5f:73:72:0c:e3:99:72:
        3c:77:22:cc:37:7d:fa:e0:20:18:8c:11:1d:7a:a7:14:e5:46:
        d0:9a:91:66:bc:4c:8f:e9:85:44:b0:ac:5f:a9:de:64:28:88:
        67:f4:15:4f:ed:0b:c6:ce:f1:41:5c:2e:f4:63:4e:2f:d5:b4:
        e2:b6:eb:b9:a1:2c:f5:5d:4e:a5:91:1e:b6:08:0e:97:cd:34:
        34:27:6a:e7:2b:40:da:32:f9:df:6d:4c:e5:f9:b6:01:7e:0d:
        e3:69:75:27:81:db:b6:df:e6:58:44:48:3f:4d:33:d1:83:51:
        da:5a:8f:5e:a5:22:52:1e:c8:d5:6c:33:ca:9c:71:66:ce:1d:
        e9:ca:62:43
-----BEGIN CERTIFICATE-----
MIIDsjCCApqgAwIBAgIBAjANBgkqhkiG9w0BAQUFADBbMQswCQYDVQQGEwJDSDEP
MA0GA1UECAwGWnVyaWNoMQ8wDQYDVQQHDAZadXJpY2gxEDAOBgNVBAoMB2lNb3Zp
ZXMxCzAJBgNVBAsMAkNBMQswCQYDVQQDDAJDQTAeFw0xNzExMjAxNzEwMzJaFw0x
ODExMjAxNzEwMzJaMGExCzAJBgNVBAYTAkNIMQ8wDQYDVQQIDAZadXJpY2gxEDAO
BgNVBAoMB2lNb3ZpZXMxFzAVBgNVBAsMDkluZnJhc3RydWN0dXJlMRYwFAYDVQQD
DA0xOTIuMTY4LjUwLjMxMIIBIjANBgkqhkiG9w0BAQEFAAOCAQ8AMIIBCgKCAQEA
xtOd4ds9zODgB45Vw3SXJuZm8gv+JuENl7nYkcp7j7v90hHDJVI1vgTQlCLOSzSF
3wxjWLDRW8YeAQCTEn4lw69GNVpT60ORjmviPuUNGbZvEff8alBYX1lOyc0D/MFk
+lub3ksKlFow3RdUrIjQ9WT5gYAS/RFviBO+u9LrERnJiHsF2CrL9vP7VugzzJRE
czRLb7rf7xDwVp/Z45ScEKb67xEHrOWxGeqEufp4lMitRqazpGxPV94VUx8BTbvA
XaGtM0NsT+voIQlK2kXpTgLI+kKwlRvJ6AaYaCYttu0XCi8WewUQwaveVmHG2QTF
nLK3xmFe1o4UVlDtBfpcywIDAQABo3sweTAJBgNVHRMEAjAAMCwGCWCGSAGG+EIB
DQQfFh1PcGVuU1NMIEdlbmVyYXRlZCBDZXJ0aWZpY2F0ZTAdBgNVHQ4EFgQU98ZR
mQUwYW/k8FrlaJ7eX3NwO/8wHwYDVR0jBBgwFoAUwCyzxpYmSNISNNA3r4QWElv+
kdcwDQYJKoZIhvcNAQEFBQADggEBADsTuA9hhakn1IhdKZ60AiGqVxa26eIQ3Bb7
DnJZwzstaCHkYb0AfFPaLkyfD+MFi2vlp7KbhAfeOx/kHQEPKWtUcR8kdWljaOs8
ctI+wV+tOp3jQ1ZDonjKuOJe0F5JonSUMQXwL1hbzsGuLojt6GrcJVr6oTX0X3Ny
DOOZcjx3Isw3ffrgIBiMER16pxTlRtCakWa8TI/phUSwrF+p3mQoiGf0FU/tC8bO
8UFcLvRjTi/VtOK267mhLPVdTqWRHrYIDpfNNDQnaucrQNoy+d9tTOX5tgF+DeNp
dSeB27bf5lhESD9NM9GDUdpaj16lIlIeyNVsM8qccWbOHenKYkM=
-----END CERTIFICATE-----
