Certificate:
    Data:
        Version: 3 (0x2)
        Serial Number: 3 (0x3)
        Signature Algorithm: sha1WithRSAEncryption
        Issuer: C=CH, ST=Zurich, L=Zurich, O=iMovies, OU=CA, CN=CA
        Validity
            Not Before: Nov 20 17:10:40 2017 GMT
            Not After : Nov 20 17:10:40 2018 GMT
        Subject: C=CH, ST=Zurich, O=iMovies, OU=Infrastructure, CN=192.168.50.30
        Subject Public Key Info:
            Public Key Algorithm: rsaEncryption
            RSA Public Key: (2048 bit)
                Modulus (2048 bit):
                    00:bd:4b:bf:4f:c1:9a:75:38:b1:a2:a2:de:e7:01:
                    8d:41:5b:48:05:40:80:ca:85:5e:ea:ed:fc:5c:11:
                    54:cb:a3:e9:be:ea:ed:31:63:aa:48:a6:ab:6d:66:
                    31:c6:af:10:cc:8b:39:5a:15:9b:7e:ea:cd:2e:72:
                    78:60:62:b9:35:fd:f1:c9:cc:92:b4:6b:10:13:72:
                    b7:bb:83:39:68:2e:8d:9f:4c:6d:87:98:34:17:43:
                    d6:52:03:84:1b:1a:f7:18:de:16:41:a9:b9:ec:79:
                    d5:2b:9f:96:1d:8d:30:af:3a:29:87:33:c3:e7:46:
                    20:39:e3:df:ac:6e:ae:da:35:e0:97:ff:79:aa:30:
                    c6:35:ce:97:95:25:52:b4:c9:d9:be:62:0d:f0:58:
                    e1:b5:94:47:37:78:91:8e:35:4f:39:5e:dc:a0:78:
                    8c:88:7d:96:ad:95:35:b4:fa:0e:54:a4:67:3d:ff:
                    9d:9b:e8:8d:4b:a7:37:af:64:0a:8d:4f:88:4c:91:
                    15:ab:46:6c:a7:79:fe:7a:d0:18:2b:3b:96:08:52:
                    4f:80:41:53:40:4f:73:76:ac:1f:71:22:e4:37:0e:
                    91:c6:19:f1:50:33:9c:2f:2d:92:df:ea:86:c2:10:
                    7e:19:8d:fd:87:91:e5:46:c7:06:d6:2c:73:e5:8d:
                    1a:87
                Exponent: 65537 (0x10001)
        X509v3 extensions:
            X509v3 Basic Constraints: 
                CA:FALSE
            Netscape Comment: 
                OpenSSL Generated Certificate
            X509v3 Subject Key Identifier: 
                E8:43:59:38:77:96:83:D8:F2:5F:6F:9A:02:C4:44:CD:B7:BC:FA:43
            X509v3 Authority Key Identifier: 
                keyid:C0:2C:B3:C6:96:26:48:D2:12:34:D0:37:AF:84:16:12:5B:FE:91:D7

    Signature Algorithm: sha1WithRSAEncryption
        29:3e:ef:e7:7a:b4:54:34:17:ed:19:db:2a:d4:a1:b1:40:0c:
        ba:be:e5:a2:9d:25:6f:43:2f:af:67:b9:c5:8e:cb:8b:32:f1:
        34:c8:0b:4b:85:01:cc:9d:2a:60:98:53:71:29:04:14:e8:30:
        15:4b:32:e7:10:a2:25:b3:32:6e:e4:c8:5b:45:22:6e:6e:b4:
        a7:44:70:3e:f9:e2:92:2f:df:85:4a:dc:c9:c4:52:93:81:f6:
        1d:84:de:2f:56:cb:c6:e2:97:4d:92:9a:f8:a7:a2:ad:e1:e6:
        ef:7d:4a:a8:d6:49:31:1c:46:5a:9c:ba:c7:c4:88:6a:4a:38:
        f4:25:48:3e:35:52:b6:50:b7:b2:0f:7f:7a:3c:a5:9e:ab:79:
        71:b2:96:e0:ce:53:c4:e5:2a:cd:97:64:05:74:a9:0a:6f:48:
        cf:d2:f9:5f:5e:58:4b:33:f1:c7:e8:bf:5f:b7:b2:15:52:c5:
        57:d4:89:9a:2b:8e:42:c9:ff:29:dc:95:62:27:2a:21:75:7c:
        61:20:03:8f:9e:7c:da:ae:50:5a:d3:f2:a2:9d:ac:de:61:72:
        f1:bf:18:4d:d6:a4:f6:7a:2b:77:02:b6:4e:c8:21:2f:55:94:
        00:41:8c:a6:2b:64:4c:b5:4d:f0:86:97:6b:c9:88:0f:2c:50:
        b4:c2:cb:2e
-----BEGIN CERTIFICATE-----
MIIDsjCCApqgAwIBAgIBAzANBgkqhkiG9w0BAQUFADBbMQswCQYDVQQGEwJDSDEP
MA0GA1UECAwGWnVyaWNoMQ8wDQYDVQQHDAZadXJpY2gxEDAOBgNVBAoMB2lNb3Zp
ZXMxCzAJBgNVBAsMAkNBMQswCQYDVQQDDAJDQTAeFw0xNzExMjAxNzEwNDBaFw0x
ODExMjAxNzEwNDBaMGExCzAJBgNVBAYTAkNIMQ8wDQYDVQQIDAZadXJpY2gxEDAO
BgNVBAoMB2lNb3ZpZXMxFzAVBgNVBAsMDkluZnJhc3RydWN0dXJlMRYwFAYDVQQD
DA0xOTIuMTY4LjUwLjMwMIIBIjANBgkqhkiG9w0BAQEFAAOCAQ8AMIIBCgKCAQEA
vUu/T8GadTixoqLe5wGNQVtIBUCAyoVe6u38XBFUy6PpvurtMWOqSKarbWYxxq8Q
zIs5WhWbfurNLnJ4YGK5Nf3xycyStGsQE3K3u4M5aC6Nn0xth5g0F0PWUgOEGxr3
GN4WQam57HnVK5+WHY0wrzophzPD50YgOePfrG6u2jXgl/95qjDGNc6XlSVStMnZ
vmIN8FjhtZRHN3iRjjVPOV7coHiMiH2WrZU1tPoOVKRnPf+dm+iNS6c3r2QKjU+I
TJEVq0Zsp3n+etAYKzuWCFJPgEFTQE9zdqwfcSLkNw6RxhnxUDOcLy2S3+qGwhB+
GY39h5HlRscG1ixz5Y0ahwIDAQABo3sweTAJBgNVHRMEAjAAMCwGCWCGSAGG+EIB
DQQfFh1PcGVuU1NMIEdlbmVyYXRlZCBDZXJ0aWZpY2F0ZTAdBgNVHQ4EFgQU6ENZ
OHeWg9jyX2+aAsREzbe8+kMwHwYDVR0jBBgwFoAUwCyzxpYmSNISNNA3r4QWElv+
kdcwDQYJKoZIhvcNAQEFBQADggEBACk+7+d6tFQ0F+0Z2yrUobFADLq+5aKdJW9D
L69nucWOy4sy8TTIC0uFAcydKmCYU3EpBBToMBVLMucQoiWzMm7kyFtFIm5utKdE
cD754pIv34VK3MnEUpOB9h2E3i9Wy8bil02Smvinoq3h5u99SqjWSTEcRlqcusfE
iGpKOPQlSD41UrZQt7IPf3o8pZ6reXGyluDOU8TlKs2XZAV0qQpvSM/S+V9eWEsz
8cfov1+3shVSxVfUiZorjkLJ/ynclWInKiF1fGEgA4+efNquUFrT8qKdrN5hcvG/
GE3WpPZ6K3cCtk7IIS9VlABBjKYrZEy1TfCGl2vJiA8sULTCyy4=
-----END CERTIFICATE-----
