Certificate:
    Data:
        Version: 3 (0x2)
        Serial Number: 3 (0x3)
        Signature Algorithm: sha1WithRSAEncryption
        Issuer: C=CH, ST=Zurich, L=Zurich, O=iMovies, OU=CA, CN=CA
        Validity
            Not Before: Nov 21 22:02:04 2017 GMT
            Not After : Nov 21 22:02:04 2018 GMT
        Subject: C=CH, ST=Zurich, O=iMovies, OU=Administration, CN=192.168.50.31
        Subject Public Key Info:
            Public Key Algorithm: rsaEncryption
            RSA Public Key: (2048 bit)
                Modulus (2048 bit):
                    00:d5:ec:41:9f:ce:e6:a8:85:cf:74:25:e6:4a:1a:
                    6c:f8:f2:06:9a:56:70:62:b5:5d:6e:09:73:48:fe:
                    4c:49:1d:ff:30:b7:e4:21:b0:84:25:ba:ea:dc:4f:
                    09:91:6f:cf:7b:3d:f2:57:02:64:cc:d7:9d:79:1e:
                    3d:12:55:54:04:06:38:05:b5:df:0b:52:cc:a0:33:
                    a3:7a:ae:3d:ed:53:00:fa:78:a8:72:07:a0:43:7c:
                    4e:51:8a:91:7d:84:77:d7:e8:5d:4e:1f:20:f3:d1:
                    39:5f:9e:54:c9:c7:3f:44:01:f8:1b:6e:49:3f:ed:
                    b5:b0:f1:b5:2e:81:71:a2:c8:19:24:2a:d7:05:27:
                    06:7a:02:b4:d9:00:17:d6:77:86:a4:a1:61:b2:59:
                    7f:e1:ca:a3:c7:83:7f:79:a4:af:a3:ec:1d:e2:88:
                    03:75:6f:80:50:87:79:2f:0e:a1:51:46:06:69:6d:
                    99:82:bd:be:7c:1f:fb:e7:1c:f3:35:b0:5a:d3:c6:
                    db:36:d6:c6:6c:5f:35:79:99:f1:96:43:bf:72:e1:
                    ba:1c:31:96:7b:0c:56:7d:2e:66:db:de:2a:6f:ae:
                    73:16:76:c1:6a:46:74:27:ba:80:3a:ae:ac:62:0a:
                    7e:53:ce:03:79:a4:f3:ea:bd:da:41:b6:23:6f:14:
                    9e:0b
                Exponent: 65537 (0x10001)
        X509v3 extensions:
            X509v3 Basic Constraints: 
                CA:FALSE
            Netscape Comment: 
                OpenSSL Generated Certificate
            X509v3 Subject Key Identifier: 
                16:A1:49:C6:BC:78:C9:0E:01:DB:07:1B:CB:7D:65:1B:C2:22:BB:A3
            X509v3 Authority Key Identifier: 
                keyid:C0:2C:B3:C6:96:26:48:D2:12:34:D0:37:AF:84:16:12:5B:FE:91:D7

    Signature Algorithm: sha1WithRSAEncryption
        58:57:83:13:85:a3:06:e8:63:b5:7c:41:1b:10:1d:b7:a9:8c:
        35:fc:09:20:14:5d:3e:69:c5:c1:7a:1f:2e:f4:fa:3f:4e:6e:
        11:51:23:4a:e2:91:43:9f:07:a3:b9:76:35:bd:04:a1:f4:85:
        74:76:bb:c0:65:25:8d:b0:c5:07:dd:b9:ee:53:58:61:a9:f7:
        67:d4:f4:6e:9d:40:47:7b:d4:76:af:69:e0:eb:bd:f5:b0:ec:
        4f:b8:0a:ee:6f:17:d8:36:35:85:fa:50:76:ff:72:f1:3f:75:
        8e:e3:de:45:d2:ba:8f:7e:b4:67:09:cf:89:65:45:dd:b1:6c:
        d8:f7:f0:dd:fd:31:42:06:c7:f3:f6:f4:b6:0b:91:45:6f:5f:
        cd:02:24:ee:ab:24:13:c4:a8:20:13:0e:69:45:0e:a9:99:3f:
        fd:d1:e5:38:18:95:48:8a:7c:cf:33:f0:23:51:f3:e8:29:d3:
        56:9e:1c:17:0b:51:85:e9:00:f9:ad:69:25:0b:20:83:d5:06:
        b5:ff:f9:53:20:f1:96:44:6d:e5:1b:61:ca:45:45:d7:4c:35:
        26:8f:83:c4:f0:b4:4c:86:f9:94:9d:b3:16:e7:9b:75:8e:09:
        0f:c2:bc:cc:93:f2:89:1f:4b:eb:97:ee:54:57:3b:68:dc:66:
        40:be:5d:f5
-----BEGIN CERTIFICATE-----
MIIDsjCCApqgAwIBAgIBAzANBgkqhkiG9w0BAQUFADBbMQswCQYDVQQGEwJDSDEP
MA0GA1UECAwGWnVyaWNoMQ8wDQYDVQQHDAZadXJpY2gxEDAOBgNVBAoMB2lNb3Zp
ZXMxCzAJBgNVBAsMAkNBMQswCQYDVQQDDAJDQTAeFw0xNzExMjEyMjAyMDRaFw0x
ODExMjEyMjAyMDRaMGExCzAJBgNVBAYTAkNIMQ8wDQYDVQQIDAZadXJpY2gxEDAO
BgNVBAoMB2lNb3ZpZXMxFzAVBgNVBAsMDkFkbWluaXN0cmF0aW9uMRYwFAYDVQQD
DA0xOTIuMTY4LjUwLjMxMIIBIjANBgkqhkiG9w0BAQEFAAOCAQ8AMIIBCgKCAQEA
1exBn87mqIXPdCXmShps+PIGmlZwYrVdbglzSP5MSR3/MLfkIbCEJbrq3E8JkW/P
ez3yVwJkzNedeR49ElVUBAY4BbXfC1LMoDOjeq497VMA+niocgegQ3xOUYqRfYR3
1+hdTh8g89E5X55Uycc/RAH4G25JP+21sPG1LoFxosgZJCrXBScGegK02QAX1neG
pKFhsll/4cqjx4N/eaSvo+wd4ogDdW+AUId5Lw6hUUYGaW2Zgr2+fB/75xzzNbBa
08bbNtbGbF81eZnxlkO/cuG6HDGWewxWfS5m294qb65zFnbBakZ0J7qAOq6sYgp+
U84DeaTz6r3aQbYjbxSeCwIDAQABo3sweTAJBgNVHRMEAjAAMCwGCWCGSAGG+EIB
DQQfFh1PcGVuU1NMIEdlbmVyYXRlZCBDZXJ0aWZpY2F0ZTAdBgNVHQ4EFgQUFqFJ
xrx4yQ4B2wcby31lG8Iiu6MwHwYDVR0jBBgwFoAUwCyzxpYmSNISNNA3r4QWElv+
kdcwDQYJKoZIhvcNAQEFBQADggEBAFhXgxOFowboY7V8QRsQHbepjDX8CSAUXT5p
xcF6Hy70+j9ObhFRI0rikUOfB6O5djW9BKH0hXR2u8BlJY2wxQfdue5TWGGp92fU
9G6dQEd71HavaeDrvfWw7E+4Cu5vF9g2NYX6UHb/cvE/dY7j3kXSuo9+tGcJz4ll
Rd2xbNj38N39MUIGx/P29LYLkUVvX80CJO6rJBPEqCATDmlFDqmZP/3R5TgYlUiK
fM8z8CNR8+gp01aeHBcLUYXpAPmtaSULIIPVBrX/+VMg8ZZEbeUbYcpFRddMNSaP
g8TwtEyG+ZSdsxbnm3WOCQ/CvMyT8okfS+uX7lRXO2jcZkC+XfU=
-----END CERTIFICATE-----
