Certificate:
    Data:
        Version: 3 (0x2)
        Serial Number: 1 (0x1)
        Signature Algorithm: sha1WithRSAEncryption
        Issuer: C=CH, ST=Zurich, L=Zurich, O=iMovies, OU=CA, CN=CA
        Validity
            Not Before: Nov 20 17:10:10 2017 GMT
            Not After : Nov 20 17:10:10 2018 GMT
        Subject: C=CH, ST=Zurich, O=iMovies, OU=Infrastructure, CN=192.168.50.32
        Subject Public Key Info:
            Public Key Algorithm: rsaEncryption
            RSA Public Key: (2048 bit)
                Modulus (2048 bit):
                    00:c1:0e:14:fe:e1:64:f4:63:2e:bc:03:9e:32:0d:
                    91:58:f3:06:5b:10:42:5b:02:0f:1c:90:f1:8f:6b:
                    62:82:10:8a:09:cb:6e:3f:4f:3b:13:de:d6:9f:99:
                    95:f9:3d:0d:4d:7c:de:56:f3:34:aa:92:6c:a0:c4:
                    5f:f4:99:8b:04:1b:f8:9b:e6:34:44:97:47:0d:2f:
                    61:ca:b4:6a:4a:12:68:32:c2:65:65:88:51:24:77:
                    9d:7c:f8:cd:46:c9:13:72:a7:78:63:23:c3:32:a5:
                    14:bf:b0:a4:86:6d:a7:f3:4c:31:a2:89:08:1d:3e:
                    b1:59:02:11:b0:34:9b:fd:2d:2c:97:33:eb:bd:0e:
                    58:07:b8:94:8d:f7:a3:e0:3f:12:d6:9f:33:e6:9f:
                    91:4d:c3:15:a1:3c:ca:cb:66:c0:db:f2:18:01:73:
                    ea:b2:7e:9e:01:8c:9c:a6:ec:6a:45:79:fb:79:25:
                    f9:43:27:57:25:3a:a3:b1:72:6a:a7:fb:71:10:06:
                    1d:54:fc:e8:5c:d8:50:52:c0:e5:3f:49:97:5e:67:
                    62:bc:9c:9c:c0:06:90:7b:a0:cf:46:fe:61:81:25:
                    03:bb:d9:27:0f:ff:43:9d:e1:69:d4:4b:16:a0:a0:
                    dd:e2:04:d6:ba:0d:bb:95:64:13:0d:a7:e0:cb:23:
                    17:31
                Exponent: 65537 (0x10001)
        X509v3 extensions:
            X509v3 Basic Constraints: 
                CA:FALSE
            Netscape Comment: 
                OpenSSL Generated Certificate
            X509v3 Subject Key Identifier: 
                58:D2:85:69:BA:71:A4:56:AC:CD:44:0A:D7:2E:04:2E:C4:7B:AF:4D
            X509v3 Authority Key Identifier: 
                keyid:C0:2C:B3:C6:96:26:48:D2:12:34:D0:37:AF:84:16:12:5B:FE:91:D7

    Signature Algorithm: sha1WithRSAEncryption
        67:d7:e9:ba:07:5d:35:06:b9:9b:60:9c:0c:dc:d9:72:16:d7:
        a0:d4:cf:df:d5:ff:55:b6:41:94:38:75:45:ce:6d:c9:ce:f6:
        11:2f:60:3b:25:8c:89:5e:f1:60:48:9f:38:c4:35:1b:65:7e:
        46:60:d2:58:1c:ea:a4:ee:85:8d:74:c9:09:0c:c1:d9:66:cc:
        12:79:a8:76:83:2b:05:dc:e7:63:3c:da:e3:24:6a:36:67:34:
        24:ee:39:ec:4a:ce:ab:7f:9f:83:93:20:73:9f:f8:de:05:a3:
        d7:a3:c0:58:e7:2c:94:0e:87:f1:5e:75:5c:67:66:47:2c:95:
        ce:e4:4d:b8:ae:73:55:a3:e3:ff:81:77:3c:c5:2f:14:b0:0c:
        18:30:a5:ff:3f:c0:54:dd:77:52:2c:68:60:54:d2:21:d7:36:
        3f:d2:f4:b9:ff:27:70:3e:4e:d5:6a:33:60:0e:77:5d:3f:b4:
        6d:2c:79:3e:e6:08:e7:3b:4a:3e:d5:8b:aa:e0:48:3f:d6:1e:
        4c:55:1c:8d:a0:fa:2e:5d:41:71:48:61:16:1f:2e:d4:53:5f:
        54:07:ed:a8:2c:0c:7a:03:04:5c:6d:fc:50:7a:f6:13:01:37:
        e3:72:3d:1b:38:5b:e4:84:59:dc:65:0b:96:1e:d8:7b:0c:61:
        85:59:83:63
-----BEGIN CERTIFICATE-----
MIIDsjCCApqgAwIBAgIBATANBgkqhkiG9w0BAQUFADBbMQswCQYDVQQGEwJDSDEP
MA0GA1UECAwGWnVyaWNoMQ8wDQYDVQQHDAZadXJpY2gxEDAOBgNVBAoMB2lNb3Zp
ZXMxCzAJBgNVBAsMAkNBMQswCQYDVQQDDAJDQTAeFw0xNzExMjAxNzEwMTBaFw0x
ODExMjAxNzEwMTBaMGExCzAJBgNVBAYTAkNIMQ8wDQYDVQQIDAZadXJpY2gxEDAO
BgNVBAoMB2lNb3ZpZXMxFzAVBgNVBAsMDkluZnJhc3RydWN0dXJlMRYwFAYDVQQD
DA0xOTIuMTY4LjUwLjMyMIIBIjANBgkqhkiG9w0BAQEFAAOCAQ8AMIIBCgKCAQEA
wQ4U/uFk9GMuvAOeMg2RWPMGWxBCWwIPHJDxj2tighCKCctuP087E97Wn5mV+T0N
TXzeVvM0qpJsoMRf9JmLBBv4m+Y0RJdHDS9hyrRqShJoMsJlZYhRJHedfPjNRskT
cqd4YyPDMqUUv7Ckhm2n80wxookIHT6xWQIRsDSb/S0slzPrvQ5YB7iUjfej4D8S
1p8z5p+RTcMVoTzKy2bA2/IYAXPqsn6eAYycpuxqRXn7eSX5QydXJTqjsXJqp/tx
EAYdVPzoXNhQUsDlP0mXXmdivJycwAaQe6DPRv5hgSUDu9knD/9DneFp1EsWoKDd
4gTWug27lWQTDafgyyMXMQIDAQABo3sweTAJBgNVHRMEAjAAMCwGCWCGSAGG+EIB
DQQfFh1PcGVuU1NMIEdlbmVyYXRlZCBDZXJ0aWZpY2F0ZTAdBgNVHQ4EFgQUWNKF
abpxpFaszUQK1y4ELsR7r00wHwYDVR0jBBgwFoAUwCyzxpYmSNISNNA3r4QWElv+
kdcwDQYJKoZIhvcNAQEFBQADggEBAGfX6boHXTUGuZtgnAzc2XIW16DUz9/V/1W2
QZQ4dUXObcnO9hEvYDsljIle8WBInzjENRtlfkZg0lgc6qTuhY10yQkMwdlmzBJ5
qHaDKwXc52M82uMkajZnNCTuOexKzqt/n4OTIHOf+N4Fo9ejwFjnLJQOh/FedVxn
Zkcslc7kTbiuc1Wj4/+BdzzFLxSwDBgwpf8/wFTdd1IsaGBU0iHXNj/S9Ln/J3A+
TtVqM2AOd10/tG0seT7mCOc7Sj7Vi6rgSD/WHkxVHI2g+i5dQXFIYRYfLtRTX1QH
7agsDHoDBFxt/FB69hMBN+NyPRs4W+SEWdxlC5Ye2HsMYYVZg2M=
-----END CERTIFICATE-----
