Certificate:
    Data:
        Version: 3 (0x2)
        Serial Number: 5 (0x5)
        Signature Algorithm: sha1WithRSAEncryption
        Issuer: C=CH, ST=Zurich, L=Zurich, O=iMovies, OU=CA, CN=CA
        Validity
            Not Before: Nov 20 17:14:11 2017 GMT
            Not After : Nov 20 17:14:11 2018 GMT
        Subject: C=CH, ST=Zurich, O=iMovies, OU=Infrastructure, CN=192.168.50.50
        Subject Public Key Info:
            Public Key Algorithm: rsaEncryption
            RSA Public Key: (2048 bit)
                Modulus (2048 bit):
                    00:d0:ae:b2:69:96:c4:40:5c:73:a2:a6:71:1b:4e:
                    2b:37:e8:7c:59:62:f4:f6:d3:40:73:46:13:9d:31:
                    bb:65:ad:c2:21:f9:22:f4:63:19:82:d3:2c:14:15:
                    ff:25:fd:9a:ba:68:0b:54:f5:03:ed:bd:2f:c6:78:
                    94:b8:1e:dc:f1:0e:fd:d3:4e:a0:82:ea:d4:24:61:
                    4c:5d:8e:f0:a2:1d:be:8f:97:54:2c:4e:69:a3:b6:
                    1e:ad:eb:9b:25:60:1d:ea:9a:c7:31:e3:60:c4:09:
                    66:9a:81:a4:36:e7:d7:8e:49:c5:84:c6:f6:e1:03:
                    5c:26:63:0c:4b:84:86:e3:be:a8:49:8b:16:b8:b8:
                    44:9a:48:9f:00:a0:a5:04:95:63:32:a3:58:6e:4c:
                    6f:33:85:90:3b:e2:ed:0c:a3:43:f1:68:ba:0e:01:
                    8a:a5:d4:a7:f0:78:00:55:60:7b:f2:85:0e:f9:e0:
                    8c:6c:52:fa:52:2b:48:64:80:d6:49:20:20:b5:74:
                    f8:eb:b2:b8:44:6b:68:11:f9:87:fe:ef:2e:92:51:
                    a3:22:76:1f:8b:1c:5f:ed:3e:6e:e2:1d:5e:62:22:
                    32:5f:5f:2c:57:a7:86:33:0a:6f:fd:f7:68:08:5a:
                    cd:df:57:c7:4f:cb:a6:e3:35:d2:9d:67:3a:7c:47:
                    c0:c3
                Exponent: 65537 (0x10001)
        X509v3 extensions:
            X509v3 Basic Constraints: 
                CA:FALSE
            Netscape Comment: 
                OpenSSL Generated Certificate
            X509v3 Subject Key Identifier: 
                E3:32:2B:B8:EC:0D:5A:10:24:79:AA:F3:37:D7:E8:6A:7B:25:36:84
            X509v3 Authority Key Identifier: 
                keyid:C0:2C:B3:C6:96:26:48:D2:12:34:D0:37:AF:84:16:12:5B:FE:91:D7

    Signature Algorithm: sha1WithRSAEncryption
        4a:97:78:a9:2a:3e:37:ff:20:c3:57:15:f3:f3:23:7b:d9:7c:
        ca:17:09:cd:ef:e7:32:dc:f4:52:a6:5a:66:3b:60:06:f9:9f:
        0a:90:73:79:45:c0:2c:7f:d9:5d:e0:08:d6:fd:4f:36:ce:ce:
        3e:59:59:cc:b1:d1:e9:e7:6c:e9:fa:8b:e9:af:ed:c2:f0:59:
        f1:93:ea:9d:13:b8:f0:7a:a6:2a:20:35:15:d9:b0:ce:76:f4:
        53:80:c3:2f:18:a0:81:bd:ef:20:c2:aa:59:e5:fb:57:90:35:
        59:22:07:f1:ff:19:5a:fb:ac:8a:f2:a9:52:75:57:c6:8f:b4:
        7d:04:1e:a8:be:a6:8c:f4:c1:02:d6:36:f6:49:96:d0:81:cf:
        17:10:f8:27:32:df:88:23:ae:4a:c8:1f:7b:02:c5:a2:c6:7c:
        a7:ff:fa:6a:28:d5:6e:df:7d:f4:81:d7:4a:b3:b0:18:a5:23:
        39:58:8f:44:e4:89:bd:4c:f4:d6:a5:cf:7d:24:29:df:c1:8a:
        72:6e:74:00:aa:5f:0f:a6:1f:c9:c7:18:cd:05:0f:c2:58:36:
        78:91:f9:4c:d5:e5:1d:f3:6b:2f:4e:c7:a7:0e:73:8f:f5:92:
        f1:a3:15:bf:1a:9c:59:2a:c4:56:d9:e3:b5:08:20:cb:7b:18:
        00:e1:30:1f
-----BEGIN CERTIFICATE-----
MIIDsjCCApqgAwIBAgIBBTANBgkqhkiG9w0BAQUFADBbMQswCQYDVQQGEwJDSDEP
MA0GA1UECAwGWnVyaWNoMQ8wDQYDVQQHDAZadXJpY2gxEDAOBgNVBAoMB2lNb3Zp
ZXMxCzAJBgNVBAsMAkNBMQswCQYDVQQDDAJDQTAeFw0xNzExMjAxNzE0MTFaFw0x
ODExMjAxNzE0MTFaMGExCzAJBgNVBAYTAkNIMQ8wDQYDVQQIDAZadXJpY2gxEDAO
BgNVBAoMB2lNb3ZpZXMxFzAVBgNVBAsMDkluZnJhc3RydWN0dXJlMRYwFAYDVQQD
DA0xOTIuMTY4LjUwLjUwMIIBIjANBgkqhkiG9w0BAQEFAAOCAQ8AMIIBCgKCAQEA
0K6yaZbEQFxzoqZxG04rN+h8WWL09tNAc0YTnTG7Za3CIfki9GMZgtMsFBX/Jf2a
umgLVPUD7b0vxniUuB7c8Q79006ggurUJGFMXY7woh2+j5dULE5po7YereubJWAd
6prHMeNgxAlmmoGkNufXjknFhMb24QNcJmMMS4SG476oSYsWuLhEmkifAKClBJVj
MqNYbkxvM4WQO+LtDKND8Wi6DgGKpdSn8HgAVWB78oUO+eCMbFL6UitIZIDWSSAg
tXT467K4RGtoEfmH/u8uklGjInYfixxf7T5u4h1eYiIyX18sV6eGMwpv/fdoCFrN
31fHT8um4zXSnWc6fEfAwwIDAQABo3sweTAJBgNVHRMEAjAAMCwGCWCGSAGG+EIB
DQQfFh1PcGVuU1NMIEdlbmVyYXRlZCBDZXJ0aWZpY2F0ZTAdBgNVHQ4EFgQU4zIr
uOwNWhAkearzN9foanslNoQwHwYDVR0jBBgwFoAUwCyzxpYmSNISNNA3r4QWElv+
kdcwDQYJKoZIhvcNAQEFBQADggEBAEqXeKkqPjf/IMNXFfPzI3vZfMoXCc3v5zLc
9FKmWmY7YAb5nwqQc3lFwCx/2V3gCNb9TzbOzj5ZWcyx0ennbOn6i+mv7cLwWfGT
6p0TuPB6piogNRXZsM529FOAwy8YoIG97yDCqlnl+1eQNVkiB/H/GVr7rIryqVJ1
V8aPtH0EHqi+poz0wQLWNvZJltCBzxcQ+Ccy34gjrkrIH3sCxaLGfKf/+moo1W7f
ffSB10qzsBilIzlYj0Tkib1M9Nalz30kKd/BinJudACqXw+mH8nHGM0FD8JYNniR
+UzV5R3zay9Ox6cOc4/1kvGjFb8anFkqxFbZ47UIIMt7GADhMB8=
-----END CERTIFICATE-----
