Certificate:
    Data:
        Version: 3 (0x2)
        Serial Number: 4 (0x4)
        Signature Algorithm: sha1WithRSAEncryption
        Issuer: C=CH, ST=Zurich, L=Zurich, O=iMovies, OU=CA, CN=CA
        Validity
            Not Before: Nov 20 17:11:06 2017 GMT
            Not After : Nov 20 17:11:06 2018 GMT
        Subject: C=CH, ST=Zurich, O=iMovies, OU=Infrastructure, CN=192.168.51.14
        Subject Public Key Info:
            Public Key Algorithm: rsaEncryption
            RSA Public Key: (2048 bit)
                Modulus (2048 bit):
                    00:bc:64:33:de:52:12:02:03:27:b7:cd:d7:a4:80:
                    78:71:cf:eb:58:42:c0:83:68:dd:fd:9d:d1:5d:95:
                    d5:0e:d2:89:fe:ae:79:5a:d0:c0:8e:bc:72:19:4a:
                    a2:b6:10:56:79:62:de:f7:58:4e:6f:21:c5:dc:be:
                    5e:6d:c0:71:06:4e:8a:b7:27:99:a4:4f:70:65:58:
                    63:7b:90:b2:89:9a:e7:98:4f:37:f9:40:f8:4c:ca:
                    ec:2d:6b:7b:6b:de:bf:69:59:e9:a4:4c:90:19:79:
                    c6:9a:a5:df:8c:8c:18:61:93:2b:5e:1d:2b:d9:69:
                    30:f9:fc:64:bd:b9:97:67:ed:33:db:f3:24:21:32:
                    87:31:bc:2b:5f:e9:46:08:67:4a:86:00:7e:32:5d:
                    50:e8:6d:26:64:03:08:af:44:f6:22:0f:48:cb:c6:
                    3f:0d:95:e4:ec:4f:8a:d8:7e:e0:38:2b:1b:fa:e8:
                    40:74:f0:16:98:8e:67:4c:a5:83:ac:01:1e:aa:5c:
                    eb:fa:74:56:dc:5f:05:c4:62:b9:26:e9:66:28:e1:
                    fb:53:dc:61:d8:67:09:6a:87:1d:35:5c:f5:73:b8:
                    ea:c8:f1:34:d5:5c:b4:60:9e:54:4a:ed:3e:2d:ac:
                    d5:52:fa:99:64:68:ff:fd:ef:05:1e:b4:e6:97:9f:
                    c2:5f
                Exponent: 65537 (0x10001)
        X509v3 extensions:
            X509v3 Basic Constraints: 
                CA:FALSE
            Netscape Comment: 
                OpenSSL Generated Certificate
            X509v3 Subject Key Identifier: 
                0F:D1:1B:B1:D2:37:86:65:06:E0:5E:68:44:46:8D:46:A2:75:1E:D8
            X509v3 Authority Key Identifier: 
                keyid:C0:2C:B3:C6:96:26:48:D2:12:34:D0:37:AF:84:16:12:5B:FE:91:D7

    Signature Algorithm: sha1WithRSAEncryption
        2c:99:9e:54:7a:de:24:86:3f:6e:24:29:c4:f6:f3:5d:59:d0:
        44:30:e3:d5:d9:16:1f:c5:2b:33:27:03:8c:73:54:5f:97:59:
        e4:a9:25:ed:38:20:43:43:b6:54:0a:bb:a3:c6:46:51:b4:97:
        84:8e:26:ab:da:61:37:a9:38:24:24:d9:b9:84:2e:8c:be:a3:
        46:72:00:ed:89:4a:6d:4b:f2:f0:dd:1a:fb:1f:68:e6:8c:12:
        9c:6b:f8:c0:59:52:6d:ef:07:a3:62:9f:78:56:60:3c:e1:1f:
        6c:e4:d2:6f:75:ea:0a:62:50:8f:51:9a:22:9b:1b:92:db:e3:
        04:85:23:79:fb:20:c8:a3:39:90:ac:1c:81:0d:88:73:85:5e:
        5e:df:5c:77:f7:e7:ef:dd:34:66:5f:8f:20:7e:c0:7b:c0:d3:
        3c:0a:4e:9c:f9:a3:99:e1:06:10:5e:fd:5f:34:c3:20:41:ff:
        c4:8d:1a:e0:f9:f5:d9:40:07:61:08:85:18:55:6b:d8:b8:1a:
        ef:d1:d9:15:f3:a7:d0:0c:47:cd:cf:89:17:65:a3:af:0f:7b:
        3a:b6:85:6c:54:b1:44:b2:db:ac:18:0f:ad:8e:a4:65:17:1c:
        6e:cb:8e:37:83:09:87:5d:a5:60:5d:f4:b6:45:64:17:61:6a:
        ee:0f:6c:a8
-----BEGIN CERTIFICATE-----
MIIDsjCCApqgAwIBAgIBBDANBgkqhkiG9w0BAQUFADBbMQswCQYDVQQGEwJDSDEP
MA0GA1UECAwGWnVyaWNoMQ8wDQYDVQQHDAZadXJpY2gxEDAOBgNVBAoMB2lNb3Zp
ZXMxCzAJBgNVBAsMAkNBMQswCQYDVQQDDAJDQTAeFw0xNzExMjAxNzExMDZaFw0x
ODExMjAxNzExMDZaMGExCzAJBgNVBAYTAkNIMQ8wDQYDVQQIDAZadXJpY2gxEDAO
BgNVBAoMB2lNb3ZpZXMxFzAVBgNVBAsMDkluZnJhc3RydWN0dXJlMRYwFAYDVQQD
DA0xOTIuMTY4LjUxLjE0MIIBIjANBgkqhkiG9w0BAQEFAAOCAQ8AMIIBCgKCAQEA
vGQz3lISAgMnt83XpIB4cc/rWELAg2jd/Z3RXZXVDtKJ/q55WtDAjrxyGUqithBW
eWLe91hObyHF3L5ebcBxBk6KtyeZpE9wZVhje5CyiZrnmE83+UD4TMrsLWt7a96/
aVnppEyQGXnGmqXfjIwYYZMrXh0r2Wkw+fxkvbmXZ+0z2/MkITKHMbwrX+lGCGdK
hgB+Ml1Q6G0mZAMIr0T2Ig9Iy8Y/DZXk7E+K2H7gOCsb+uhAdPAWmI5nTKWDrAEe
qlzr+nRW3F8FxGK5JulmKOH7U9xh2GcJaocdNVz1c7jqyPE01Vy0YJ5USu0+LazV
UvqZZGj//e8FHrTml5/CXwIDAQABo3sweTAJBgNVHRMEAjAAMCwGCWCGSAGG+EIB
DQQfFh1PcGVuU1NMIEdlbmVyYXRlZCBDZXJ0aWZpY2F0ZTAdBgNVHQ4EFgQUD9Eb
sdI3hmUG4F5oREaNRqJ1HtgwHwYDVR0jBBgwFoAUwCyzxpYmSNISNNA3r4QWElv+
kdcwDQYJKoZIhvcNAQEFBQADggEBACyZnlR63iSGP24kKcT2811Z0EQw49XZFh/F
KzMnA4xzVF+XWeSpJe04IENDtlQKu6PGRlG0l4SOJqvaYTepOCQk2bmELoy+o0Zy
AO2JSm1L8vDdGvsfaOaMEpxr+MBZUm3vB6Nin3hWYDzhH2zk0m916gpiUI9RmiKb
G5Lb4wSFI3n7IMijOZCsHIENiHOFXl7fXHf35+/dNGZfjyB+wHvA0zwKTpz5o5nh
BhBe/V80wyBB/8SNGuD59dlAB2EIhRhVa9i4Gu/R2RXzp9AMR83PiRdlo68Pezq2
hWxUsUSy26wYD62OpGUXHG7LjjeDCYddpWBd9LZFZBdhau4PbKg=
-----END CERTIFICATE-----
