Certificate:
    Data:
        Version: 3 (0x2)
        Serial Number: 4 (0x4)
        Signature Algorithm: sha1WithRSAEncryption
        Issuer: C=CH, ST=Zurich, L=Zurich, O=iMovies, OU=CA, CN=CA
        Validity
            Not Before: Nov 21 22:02:08 2017 GMT
            Not After : Nov 21 22:02:08 2018 GMT
        Subject: C=CH, ST=Zurich, O=iMovies, OU=Administration, CN=192.168.50.33
        Subject Public Key Info:
            Public Key Algorithm: rsaEncryption
            RSA Public Key: (2048 bit)
                Modulus (2048 bit):
                    00:c7:b5:3d:18:36:b0:fb:a5:2c:89:5c:8a:63:9b:
                    8f:b5:ef:12:42:cd:57:4d:59:12:fe:06:e9:b0:8b:
                    31:c5:f2:d7:ea:07:63:19:7f:85:07:a9:da:1c:45:
                    6b:c1:23:da:da:95:33:9b:a6:9c:2d:f2:13:fa:d1:
                    d6:55:72:32:b5:b8:3b:d7:50:d9:38:c7:19:b8:d8:
                    0f:fe:c4:f3:69:b1:e8:24:de:14:41:6d:cc:3a:32:
                    31:f4:f3:02:08:39:4b:50:1d:df:6c:9d:45:e9:41:
                    f4:e6:ac:d6:ab:15:ad:c1:a0:66:37:78:62:43:29:
                    c7:3e:5f:36:34:6c:a5:f4:3e:fe:81:14:57:2a:2c:
                    30:29:e5:97:74:f0:e3:5e:cc:c7:a6:5c:08:c3:1d:
                    a0:68:a9:6f:29:16:83:63:a6:0a:4d:ca:f4:f4:63:
                    12:ae:ae:73:50:48:e6:40:33:eb:79:e7:1f:9b:80:
                    eb:32:7f:46:b6:41:5c:65:2c:e7:27:35:6d:9f:b6:
                    ca:09:44:4b:aa:54:df:7b:6c:8f:9f:3b:ce:58:2f:
                    9f:74:09:ac:7a:22:8a:13:f0:61:7d:87:db:86:f9:
                    93:df:fc:03:0f:0c:99:37:49:18:31:c6:31:3b:fb:
                    c3:2a:29:44:0d:f5:7d:9f:81:2a:cd:2e:cf:ee:d0:
                    31:3b
                Exponent: 65537 (0x10001)
        X509v3 extensions:
            X509v3 Basic Constraints: 
                CA:FALSE
            Netscape Comment: 
                OpenSSL Generated Certificate
            X509v3 Subject Key Identifier: 
                71:16:5B:9C:CC:96:2F:61:98:A2:FC:24:DF:98:DB:22:BE:D9:1C:30
            X509v3 Authority Key Identifier: 
                keyid:C0:2C:B3:C6:96:26:48:D2:12:34:D0:37:AF:84:16:12:5B:FE:91:D7

    Signature Algorithm: sha1WithRSAEncryption
        1d:ba:c4:06:28:77:48:b1:24:70:f4:b3:2b:ff:4e:59:b9:c1:
        8e:f8:de:df:c7:14:f3:52:2c:ab:f2:87:97:af:8f:49:43:b3:
        61:ff:14:c5:6f:4e:34:9d:2c:8e:48:4e:5a:59:2d:5f:17:db:
        5d:0c:56:77:1d:e1:7a:79:f5:db:7a:19:5e:2d:73:ee:e6:ef:
        4b:6b:c7:cd:a3:82:57:a2:af:f0:b7:e7:59:f5:fd:0b:18:6e:
        bf:9b:6d:a6:71:24:3b:aa:7a:f6:1f:12:27:b3:7f:83:45:eb:
        41:83:cd:a3:23:87:35:b7:1e:22:02:33:e0:0a:ff:28:e3:fa:
        e1:d4:2f:c2:02:3d:bb:24:11:9c:83:54:ff:0c:69:82:7d:21:
        3e:fb:26:d8:2b:1b:f2:66:ce:f2:c4:bf:2a:e0:cd:f0:69:e6:
        86:e4:2d:95:fd:11:12:33:42:fa:bc:69:61:a6:19:1f:f8:0c:
        6d:a2:4b:ed:88:d0:56:bc:b4:02:57:4b:fc:6e:1c:ff:30:a4:
        ba:c7:45:9b:b7:8d:41:ee:83:30:b1:32:8e:78:9f:9f:9c:af:
        83:52:81:d4:f6:c1:06:6f:52:9e:6b:2a:3d:54:a9:9b:77:29:
        b1:81:3d:8a:18:ca:a0:7a:76:3e:02:44:4b:07:bd:b1:93:2b:
        d2:e3:c7:ab
-----BEGIN CERTIFICATE-----
MIIDsjCCApqgAwIBAgIBBDANBgkqhkiG9w0BAQUFADBbMQswCQYDVQQGEwJDSDEP
MA0GA1UECAwGWnVyaWNoMQ8wDQYDVQQHDAZadXJpY2gxEDAOBgNVBAoMB2lNb3Zp
ZXMxCzAJBgNVBAsMAkNBMQswCQYDVQQDDAJDQTAeFw0xNzExMjEyMjAyMDhaFw0x
ODExMjEyMjAyMDhaMGExCzAJBgNVBAYTAkNIMQ8wDQYDVQQIDAZadXJpY2gxEDAO
BgNVBAoMB2lNb3ZpZXMxFzAVBgNVBAsMDkFkbWluaXN0cmF0aW9uMRYwFAYDVQQD
DA0xOTIuMTY4LjUwLjMzMIIBIjANBgkqhkiG9w0BAQEFAAOCAQ8AMIIBCgKCAQEA
x7U9GDaw+6UsiVyKY5uPte8SQs1XTVkS/gbpsIsxxfLX6gdjGX+FB6naHEVrwSPa
2pUzm6acLfIT+tHWVXIytbg711DZOMcZuNgP/sTzabHoJN4UQW3MOjIx9PMCCDlL
UB3fbJ1F6UH05qzWqxWtwaBmN3hiQynHPl82NGyl9D7+gRRXKiwwKeWXdPDjXszH
plwIwx2gaKlvKRaDY6YKTcr09GMSrq5zUEjmQDPreecfm4DrMn9GtkFcZSznJzVt
n7bKCURLqlTfe2yPnzvOWC+fdAmseiKKE/BhfYfbhvmT3/wDDwyZN0kYMcYxO/vD
KilEDfV9n4EqzS7P7tAxOwIDAQABo3sweTAJBgNVHRMEAjAAMCwGCWCGSAGG+EIB
DQQfFh1PcGVuU1NMIEdlbmVyYXRlZCBDZXJ0aWZpY2F0ZTAdBgNVHQ4EFgQUcRZb
nMyWL2GYovwk35jbIr7ZHDAwHwYDVR0jBBgwFoAUwCyzxpYmSNISNNA3r4QWElv+
kdcwDQYJKoZIhvcNAQEFBQADggEBAB26xAYod0ixJHD0syv/Tlm5wY743t/HFPNS
LKvyh5evj0lDs2H/FMVvTjSdLI5ITlpZLV8X210MVncd4Xp59dt6GV4tc+7m70tr
x82jgleir/C351n1/QsYbr+bbaZxJDuqevYfEiezf4NF60GDzaMjhzW3HiICM+AK
/yjj+uHUL8ICPbskEZyDVP8MaYJ9IT77JtgrG/JmzvLEvyrgzfBp5obkLZX9ERIz
Qvq8aWGmGR/4DG2iS+2I0Fa8tAJXS/xuHP8wpLrHRZu3jUHugzCxMo54n5+cr4NS
gdT2wQZvUp5rKj1UqZt3KbGBPYoYyqB6dj4CREsHvbGTK9Ljx6s=
-----END CERTIFICATE-----
