Certificate:
    Data:
        Version: 3 (0x2)
        Serial Number: 5 (0x5)
        Signature Algorithm: sha1WithRSAEncryption
        Issuer: C=CH, ST=Zurich, L=Zurich, O=iMovies, OU=CA, CN=CA
        Validity
            Not Before: Nov 21 22:02:15 2017 GMT
            Not After : Nov 21 22:02:15 2018 GMT
        Subject: C=CH, ST=Zurich, O=iMovies, OU=Administration, CN=ca_admin
        Subject Public Key Info:
            Public Key Algorithm: rsaEncryption
            RSA Public Key: (2048 bit)
                Modulus (2048 bit):
                    00:b9:0a:8b:bf:d0:51:42:f8:ae:9a:c1:08:48:9e:
                    2d:dc:b4:6b:90:db:cc:4c:09:cd:1d:fa:7b:ab:58:
                    ad:9b:77:41:3a:14:8c:cf:e1:93:5e:6e:f3:ac:3b:
                    f3:57:14:af:96:9d:83:c2:e5:c1:8d:6e:62:1a:c9:
                    b3:3f:b2:7d:7a:db:f2:8e:b1:5f:1d:2e:02:76:f3:
                    4e:8e:a7:da:a0:2b:16:d2:98:3e:42:9e:27:8e:82:
                    b4:e9:79:67:d7:c6:dc:7e:14:70:29:eb:c8:c8:0d:
                    ae:e7:c0:06:01:59:b6:5d:0c:71:43:b4:c7:ba:72:
                    1a:a3:42:72:ab:bd:b7:fe:35:25:49:7b:72:a7:12:
                    64:bf:be:c6:49:54:e0:53:79:14:e7:ff:bd:a2:ef:
                    2f:53:a0:83:64:c5:3f:42:67:be:e1:ba:4d:b7:47:
                    0e:fb:cc:64:6d:1f:47:69:de:7c:08:01:b4:d0:b8:
                    35:35:4c:72:39:2f:27:45:c1:b7:75:d5:e7:1c:6f:
                    39:d7:ef:31:30:d0:4b:c7:1a:48:f7:71:77:a3:0b:
                    78:af:38:82:8a:a3:cc:61:c3:b8:67:8f:46:63:b7:
                    34:cd:47:b5:ab:ad:6c:07:89:47:34:61:c9:61:1e:
                    9b:85:95:ec:b0:2d:72:4a:df:33:5f:75:5f:b5:5f:
                    16:b9
                Exponent: 65537 (0x10001)
        X509v3 extensions:
            X509v3 Basic Constraints: 
                CA:FALSE
            Netscape Comment: 
                OpenSSL Generated Certificate
            X509v3 Subject Key Identifier: 
                4F:F5:FA:DD:45:01:A7:51:88:4A:E5:C2:F5:DA:53:1A:EC:3B:47:BC
            X509v3 Authority Key Identifier: 
                keyid:C0:2C:B3:C6:96:26:48:D2:12:34:D0:37:AF:84:16:12:5B:FE:91:D7

    Signature Algorithm: sha1WithRSAEncryption
        1b:aa:ba:26:d4:6f:36:77:31:a8:65:0b:84:51:46:49:fc:7d:
        09:8c:7c:54:c5:f0:1d:f0:8f:23:7d:88:d5:b0:c0:e8:c0:bf:
        d3:81:01:08:c2:23:df:3b:5a:c1:5e:fb:23:f6:2e:30:f6:a0:
        1b:96:f4:6d:b3:dc:9b:ef:c3:f0:84:02:91:bc:f7:ee:aa:8c:
        8a:21:75:38:81:1b:81:f0:b3:e2:93:a8:ae:54:18:1c:d0:36:
        1d:ff:f1:e9:95:14:86:a3:b5:22:1f:6e:da:dd:d1:64:fe:b0:
        65:15:41:7a:03:9b:9c:64:0e:3d:20:e2:e7:1f:57:b5:13:a1:
        ab:b2:eb:c9:61:03:32:89:75:5a:4b:1d:48:1c:b8:b1:2d:b1:
        13:d8:4a:dd:e7:8c:ec:de:a4:7d:b4:23:2a:8a:ff:a3:d3:c0:
        3f:44:fc:43:89:88:5b:f8:42:5b:28:7f:b9:53:bd:f1:96:07:
        83:38:8a:e9:1e:9d:30:5c:2c:e4:8c:9f:36:a0:04:63:53:1f:
        be:0b:49:30:36:10:2b:4a:c0:5d:8a:10:04:dc:ee:d2:11:a9:
        44:2e:7f:d4:61:86:4a:aa:99:73:f0:93:a8:78:66:ec:c2:cf:
        9f:98:04:dd:4a:c2:24:b5:3c:c9:3d:d0:19:ae:64:9f:c2:f1:
        78:2e:8b:1b
-----BEGIN CERTIFICATE-----
MIIDrTCCApWgAwIBAgIBBTANBgkqhkiG9w0BAQUFADBbMQswCQYDVQQGEwJDSDEP
MA0GA1UECAwGWnVyaWNoMQ8wDQYDVQQHDAZadXJpY2gxEDAOBgNVBAoMB2lNb3Zp
ZXMxCzAJBgNVBAsMAkNBMQswCQYDVQQDDAJDQTAeFw0xNzExMjEyMjAyMTVaFw0x
ODExMjEyMjAyMTVaMFwxCzAJBgNVBAYTAkNIMQ8wDQYDVQQIDAZadXJpY2gxEDAO
BgNVBAoMB2lNb3ZpZXMxFzAVBgNVBAsMDkFkbWluaXN0cmF0aW9uMREwDwYDVQQD
DAhjYV9hZG1pbjCCASIwDQYJKoZIhvcNAQEBBQADggEPADCCAQoCggEBALkKi7/Q
UUL4rprBCEieLdy0a5DbzEwJzR36e6tYrZt3QToUjM/hk15u86w781cUr5adg8Ll
wY1uYhrJsz+yfXrb8o6xXx0uAnbzTo6n2qArFtKYPkKeJ46CtOl5Z9fG3H4UcCnr
yMgNrufABgFZtl0McUO0x7pyGqNCcqu9t/41JUl7cqcSZL++xklU4FN5FOf/vaLv
L1Ogg2TFP0JnvuG6TbdHDvvMZG0fR2nefAgBtNC4NTVMcjkvJ0XBt3XV5xxvOdfv
MTDQS8caSPdxd6MLeK84goqjzGHDuGePRmO3NM1HtautbAeJRzRhyWEem4WV7LAt
ckrfM191X7VfFrkCAwEAAaN7MHkwCQYDVR0TBAIwADAsBglghkgBhvhCAQ0EHxYd
T3BlblNTTCBHZW5lcmF0ZWQgQ2VydGlmaWNhdGUwHQYDVR0OBBYEFE/1+t1FAadR
iErlwvXaUxrsO0e8MB8GA1UdIwQYMBaAFMAss8aWJkjSEjTQN6+EFhJb/pHXMA0G
CSqGSIb3DQEBBQUAA4IBAQAbqrom1G82dzGoZQuEUUZJ/H0JjHxUxfAd8I8jfYjV
sMDowL/TgQEIwiPfO1rBXvsj9i4w9qAblvRts9yb78PwhAKRvPfuqoyKIXU4gRuB
8LPik6iuVBgc0DYd//HplRSGo7UiH27a3dFk/rBlFUF6A5ucZA49IOLnH1e1E6Gr
suvJYQMyiXVaSx1IHLixLbET2Erd54zs3qR9tCMqiv+j08A/RPxDiYhb+EJbKH+5
U73xlgeDOIrpHp0wXCzkjJ82oARjUx++C0kwNhArSsBdihAE3O7SEalELn/UYYZK
qplz8JOoeGbsws+fmATdSsIktTzJPdAZrmSfwvF4Losb
-----END CERTIFICATE-----
