Certificate:
    Data:
        Version: 3 (0x2)
        Serial Number: 6 (0x6)
        Signature Algorithm: sha1WithRSAEncryption
        Issuer: C=CH, ST=Zurich, L=Zurich, O=iMovies, OU=CA, CN=CA
        Validity
            Not Before: Nov 20 17:16:41 2017 GMT
            Not After : Nov 20 17:16:41 2018 GMT
        Subject: C=CH, ST=Zurich, O=iMovies, OU=Administration, CN=ca_admin
        Subject Public Key Info:
            Public Key Algorithm: rsaEncryption
            RSA Public Key: (2048 bit)
                Modulus (2048 bit):
                    00:be:59:cb:ea:17:70:91:ed:c3:c3:ad:7c:3d:43:
                    41:6d:b9:16:23:08:31:02:a4:c6:9c:02:e8:9f:c4:
                    be:0f:52:74:eb:55:62:bd:b1:f6:e3:ed:70:e7:c1:
                    1e:a8:9e:24:8a:5f:37:fd:fe:ba:b9:54:4f:70:f2:
                    08:0a:db:c6:4c:a2:59:81:d9:48:f6:f7:29:e5:4c:
                    b0:20:18:a0:59:a8:14:80:d8:91:66:9c:8a:1e:29:
                    b0:62:09:4f:76:b0:91:b1:57:e2:7b:62:27:f8:0d:
                    a5:70:61:6c:e5:93:05:ae:ea:49:e4:c9:86:3b:df:
                    df:e7:15:e3:42:90:b1:30:c8:db:e6:a2:15:af:ea:
                    cc:29:40:0d:d9:29:f1:5b:ee:2c:d0:d2:ec:b6:57:
                    88:57:01:50:c7:33:73:9d:4f:87:f5:58:80:bc:65:
                    74:59:02:b6:93:67:68:8e:42:64:fd:f9:fd:42:de:
                    5a:95:eb:91:80:76:b4:1c:16:5e:be:e0:41:e9:d6:
                    37:49:f8:8f:59:e9:b6:51:d1:78:64:07:38:d0:6b:
                    e6:47:65:9f:16:2f:3f:a5:cb:11:b0:0b:dd:1a:50:
                    7d:b1:be:34:46:6a:45:07:d7:88:0e:32:08:0b:0f:
                    a0:90:cf:bc:0c:ab:52:78:c9:8c:1f:e8:00:44:b4:
                    65:b3
                Exponent: 65537 (0x10001)
        X509v3 extensions:
            X509v3 Basic Constraints: 
                CA:FALSE
            Netscape Comment: 
                OpenSSL Generated Certificate
            X509v3 Subject Key Identifier: 
                26:DE:2D:A3:97:74:E0:A6:A9:C1:CE:29:B8:70:AD:20:2B:47:46:69
            X509v3 Authority Key Identifier: 
                keyid:C0:2C:B3:C6:96:26:48:D2:12:34:D0:37:AF:84:16:12:5B:FE:91:D7

    Signature Algorithm: sha1WithRSAEncryption
        b2:1c:ea:02:fb:5d:4e:94:4c:87:3f:da:9a:4a:95:31:9b:73:
        6d:9c:5a:91:01:5c:a8:98:9b:df:b9:19:91:09:34:06:73:ea:
        9e:12:4d:c4:6e:84:7f:8d:e5:72:66:cb:9c:03:5b:62:34:92:
        e3:66:dc:ed:7f:04:c5:16:9a:34:b7:8d:99:23:6e:70:c8:90:
        4b:30:b4:65:0a:a4:21:b5:9c:7b:68:72:b2:e3:61:0e:a7:96:
        43:39:ec:50:a6:58:f4:60:28:dd:75:9e:55:22:d4:76:71:17:
        a9:cb:a4:2e:b8:8b:22:13:0a:f8:11:f0:1d:1a:db:b8:70:87:
        cf:ce:f5:a3:72:68:1f:74:0c:ff:63:20:31:24:6e:8c:60:7c:
        4e:d2:5c:ec:3a:60:18:10:d7:1c:9f:10:39:8b:25:45:4e:e8:
        60:10:f6:6a:23:23:93:41:4b:04:1d:97:ec:9e:70:8f:89:5c:
        a2:ab:b9:f1:62:ab:1b:79:4c:be:72:ee:01:2a:6d:d3:82:47:
        f1:f2:8e:22:a2:6f:62:ad:a2:14:e3:5a:f0:17:57:7a:d6:5b:
        82:85:fc:96:63:e5:b9:2b:22:16:c5:ab:9d:dc:cf:90:c1:43:
        5e:26:b6:12:99:ae:9b:3d:95:64:a6:7c:7b:13:1c:3f:f3:86:
        3f:08:f0:70
-----BEGIN CERTIFICATE-----
MIIDrTCCApWgAwIBAgIBBjANBgkqhkiG9w0BAQUFADBbMQswCQYDVQQGEwJDSDEP
MA0GA1UECAwGWnVyaWNoMQ8wDQYDVQQHDAZadXJpY2gxEDAOBgNVBAoMB2lNb3Zp
ZXMxCzAJBgNVBAsMAkNBMQswCQYDVQQDDAJDQTAeFw0xNzExMjAxNzE2NDFaFw0x
ODExMjAxNzE2NDFaMFwxCzAJBgNVBAYTAkNIMQ8wDQYDVQQIDAZadXJpY2gxEDAO
BgNVBAoMB2lNb3ZpZXMxFzAVBgNVBAsMDkFkbWluaXN0cmF0aW9uMREwDwYDVQQD
DAhjYV9hZG1pbjCCASIwDQYJKoZIhvcNAQEBBQADggEPADCCAQoCggEBAL5Zy+oX
cJHtw8OtfD1DQW25FiMIMQKkxpwC6J/Evg9SdOtVYr2x9uPtcOfBHqieJIpfN/3+
urlUT3DyCArbxkyiWYHZSPb3KeVMsCAYoFmoFIDYkWacih4psGIJT3awkbFX4nti
J/gNpXBhbOWTBa7qSeTJhjvf3+cV40KQsTDI2+aiFa/qzClADdkp8VvuLNDS7LZX
iFcBUMczc51Ph/VYgLxldFkCtpNnaI5CZP35/ULeWpXrkYB2tBwWXr7gQenWN0n4
j1nptlHReGQHONBr5kdlnxYvP6XLEbAL3RpQfbG+NEZqRQfXiA4yCAsPoJDPvAyr
UnjJjB/oAES0ZbMCAwEAAaN7MHkwCQYDVR0TBAIwADAsBglghkgBhvhCAQ0EHxYd
T3BlblNTTCBHZW5lcmF0ZWQgQ2VydGlmaWNhdGUwHQYDVR0OBBYEFCbeLaOXdOCm
qcHOKbhwrSArR0ZpMB8GA1UdIwQYMBaAFMAss8aWJkjSEjTQN6+EFhJb/pHXMA0G
CSqGSIb3DQEBBQUAA4IBAQCyHOoC+11OlEyHP9qaSpUxm3NtnFqRAVyomJvfuRmR
CTQGc+qeEk3EboR/jeVyZsucA1tiNJLjZtztfwTFFpo0t42ZI25wyJBLMLRlCqQh
tZx7aHKy42EOp5ZDOexQplj0YCjddZ5VItR2cRepy6QuuIsiEwr4EfAdGtu4cIfP
zvWjcmgfdAz/YyAxJG6MYHxO0lzsOmAYENccnxA5iyVFTuhgEPZqIyOTQUsEHZfs
nnCPiVyiq7nxYqsbeUy+cu4BKm3Tgkfx8o4iom9iraIU41rwF1d61luChfyWY+W5
KyIWxaud3M+QwUNeJrYSma6bPZVkpnx7Exw/84Y/CPBw
-----END CERTIFICATE-----
