Certificate:
    Data:
        Version: 3 (0x2)
        Serial Number: 7 (0x7)
        Signature Algorithm: sha1WithRSAEncryption
        Issuer: C=CH, ST=Zurich, L=Zurich, O=iMovies, OU=CA, CN=CA
        Validity
            Not Before: Nov 20 17:24:17 2017 GMT
            Not After : Nov 20 17:24:17 2018 GMT
        Subject: C=CH, ST=Zurich, O=iMovies, OU=Administration, CN=sys_admin
        Subject Public Key Info:
            Public Key Algorithm: rsaEncryption
            RSA Public Key: (2048 bit)
                Modulus (2048 bit):
                    00:da:8c:a0:86:ce:b9:64:98:5a:7d:24:e1:d5:95:
                    70:3a:d9:a6:21:a7:94:1b:72:65:dc:63:30:f1:35:
                    c2:1d:e8:b9:f9:a8:08:9f:cd:dc:fc:96:a2:56:d8:
                    40:fb:41:d6:37:4f:09:0c:cd:04:58:5d:c8:47:c6:
                    5e:f9:bf:17:ee:08:49:94:5e:4d:ed:4c:a3:46:94:
                    27:8f:48:13:34:4e:bf:13:92:ee:d7:73:93:b9:5e:
                    10:6a:61:d8:87:40:ee:84:5c:00:36:f1:99:c5:b0:
                    20:0c:bb:57:5a:e5:2a:7f:54:4d:4a:ac:40:45:d5:
                    28:d8:7c:f3:50:ef:f5:d3:ab:c4:3b:0c:40:17:c2:
                    cd:c1:b3:2c:87:ee:01:5a:7f:9f:9a:fd:36:a3:86:
                    ce:68:ba:fa:d5:1f:e7:2c:79:e6:31:9a:6c:92:05:
                    ec:cd:c6:ab:68:8f:fc:31:b3:bc:99:6d:20:c4:e8:
                    f4:65:9d:03:af:6e:d7:85:1e:59:8f:4a:c6:f6:5e:
                    b7:cf:e1:a8:1d:a3:c1:94:45:da:3e:e2:c6:c4:79:
                    b8:df:d8:6f:da:8e:dd:21:63:06:4c:ab:0d:80:a1:
                    91:2d:03:a9:83:a6:f1:70:c3:88:f9:94:3f:13:d1:
                    e3:fd:c0:77:04:99:66:8d:dc:fa:b4:f3:b8:04:ff:
                    96:1b
                Exponent: 65537 (0x10001)
        X509v3 extensions:
            X509v3 Basic Constraints: 
                CA:FALSE
            Netscape Comment: 
                OpenSSL Generated Certificate
            X509v3 Subject Key Identifier: 
                97:00:36:24:ED:EF:22:9C:0C:8D:D3:C4:91:B2:E9:21:96:5B:E8:D0
            X509v3 Authority Key Identifier: 
                keyid:C0:2C:B3:C6:96:26:48:D2:12:34:D0:37:AF:84:16:12:5B:FE:91:D7

    Signature Algorithm: sha1WithRSAEncryption
        73:71:26:80:68:23:0b:2b:23:ce:28:20:a1:ad:3c:b4:ce:e7:
        a5:ad:d9:e0:92:8d:63:45:ab:df:bb:49:b9:cc:72:6c:03:d3:
        07:bd:d4:cf:aa:17:7f:93:b9:3e:06:75:f1:e7:55:b3:ba:13:
        84:5e:b6:76:0b:35:be:4b:a0:76:44:da:98:70:16:05:9b:92:
        41:7f:86:ee:70:e8:07:b8:f8:a3:4b:ed:ec:45:3b:77:a6:b0:
        65:d9:ab:90:77:e5:dc:9c:44:92:0e:0d:33:a8:09:5d:8e:3b:
        8f:8c:5e:bd:d8:74:5a:74:0a:a4:e3:17:1e:a0:97:e9:5e:37:
        cf:6d:e3:30:eb:29:4f:62:f7:b3:3c:ff:8e:7f:93:90:41:b4:
        84:9c:b8:9e:6a:31:83:4c:7f:a8:d0:68:a7:cd:c4:97:2a:cd:
        47:be:fd:00:ea:d0:a6:c4:98:8c:e0:b5:6f:0b:05:fa:c8:c4:
        1a:8c:c4:12:50:9c:fe:6a:03:d0:88:ae:89:2f:05:f2:90:8f:
        e8:7c:ce:f2:a7:28:40:dc:09:d8:1e:a6:10:bc:16:d2:ef:3f:
        57:ed:21:5a:12:19:e4:68:6e:e8:96:ae:86:48:57:30:fb:71:
        9c:43:ab:31:6c:1e:48:d5:ec:b8:dd:7d:0b:cc:96:17:d7:d3:
        da:5d:54:e1
-----BEGIN CERTIFICATE-----
MIIDrjCCApagAwIBAgIBBzANBgkqhkiG9w0BAQUFADBbMQswCQYDVQQGEwJDSDEP
MA0GA1UECAwGWnVyaWNoMQ8wDQYDVQQHDAZadXJpY2gxEDAOBgNVBAoMB2lNb3Zp
ZXMxCzAJBgNVBAsMAkNBMQswCQYDVQQDDAJDQTAeFw0xNzExMjAxNzI0MTdaFw0x
ODExMjAxNzI0MTdaMF0xCzAJBgNVBAYTAkNIMQ8wDQYDVQQIDAZadXJpY2gxEDAO
BgNVBAoMB2lNb3ZpZXMxFzAVBgNVBAsMDkFkbWluaXN0cmF0aW9uMRIwEAYDVQQD
DAlzeXNfYWRtaW4wggEiMA0GCSqGSIb3DQEBAQUAA4IBDwAwggEKAoIBAQDajKCG
zrlkmFp9JOHVlXA62aYhp5QbcmXcYzDxNcId6Ln5qAifzdz8lqJW2ED7QdY3TwkM
zQRYXchHxl75vxfuCEmUXk3tTKNGlCePSBM0Tr8Tku7Xc5O5XhBqYdiHQO6EXAA2
8ZnFsCAMu1da5Sp/VE1KrEBF1SjYfPNQ7/XTq8Q7DEAXws3BsyyH7gFaf5+a/Taj
hs5ouvrVH+cseeYxmmySBezNxqtoj/wxs7yZbSDE6PRlnQOvbteFHlmPSsb2XrfP
4agdo8GURdo+4sbEebjf2G/ajt0hYwZMqw2AoZEtA6mDpvFww4j5lD8T0eP9wHcE
mWaN3Pq087gE/5YbAgMBAAGjezB5MAkGA1UdEwQCMAAwLAYJYIZIAYb4QgENBB8W
HU9wZW5TU0wgR2VuZXJhdGVkIENlcnRpZmljYXRlMB0GA1UdDgQWBBSXADYk7e8i
nAyN08SRsukhllvo0DAfBgNVHSMEGDAWgBTALLPGliZI0hI00DevhBYSW/6R1zAN
BgkqhkiG9w0BAQUFAAOCAQEAc3EmgGgjCysjziggoa08tM7npa3Z4JKNY0Wr37tJ
ucxybAPTB73Uz6oXf5O5PgZ18edVs7oThF62dgs1vkugdkTamHAWBZuSQX+G7nDo
B7j4o0vt7EU7d6awZdmrkHfl3JxEkg4NM6gJXY47j4xevdh0WnQKpOMXHqCX6V43
z23jMOspT2L3szz/jn+TkEG0hJy4nmoxg0x/qNBop83ElyrNR779AOrQpsSYjOC1
bwsF+sjEGozEElCc/moD0IiuiS8F8pCP6HzO8qcoQNwJ2B6mELwW0u8/V+0hWhIZ
5Ghu6JauhkhXMPtxnEOrMWweSNXsuN19C8yWF9fT2l1U4Q==
-----END CERTIFICATE-----
