Certificate:
    Data:
        Version: 3 (0x2)
        Serial Number: 3 (0x3)
        Signature Algorithm: sha1WithRSAEncryption
        Issuer: C=CH, ST=Zurich, L=Zurich, O=iMovies, OU=CA, CN=CA
        Validity
            Not Before: Nov 15 16:44:22 2017 GMT
            Not After : Nov 15 16:44:22 2018 GMT
        Subject: C=CH, ST=Zurich, O=iMovies, OU=Infrastructure, CN=backup
        Subject Public Key Info:
            Public Key Algorithm: rsaEncryption
            RSA Public Key: (2048 bit)
                Modulus (2048 bit):
                    00:e0:5c:36:b9:c3:07:10:55:f7:4d:dc:c8:55:26:
                    7f:07:9c:c5:27:96:1d:97:6f:93:5e:24:f0:1a:de:
                    d5:bd:3e:fa:d1:1d:bb:56:c4:ea:2a:6b:93:00:3f:
                    bb:81:b4:7d:0d:b8:e7:69:c0:16:53:c2:c4:a1:01:
                    de:2b:ba:51:86:46:3b:1d:63:88:1c:9b:bb:66:64:
                    44:4e:90:de:d1:e0:80:21:8a:b0:7a:81:9e:a2:6f:
                    27:eb:19:aa:7d:4c:b8:a7:17:6b:4b:b7:ad:9b:15:
                    59:cc:b5:73:54:a4:dc:0b:ed:00:c1:5c:72:3d:68:
                    ac:6c:07:56:be:44:93:74:42:47:08:3d:55:e4:65:
                    c2:6f:d7:f5:7e:83:81:7f:fb:4b:d1:95:1e:de:a0:
                    9c:32:d4:25:58:7c:cf:11:fb:34:cd:99:66:dc:4b:
                    2a:af:d2:18:3a:61:a1:32:4a:d0:9d:59:79:fa:98:
                    19:cf:99:19:60:97:df:82:81:aa:db:a0:49:85:99:
                    4e:82:7e:e1:c0:e5:cb:f8:f2:a7:46:34:b3:5a:25:
                    47:ff:66:e2:f3:6d:bc:17:be:1c:e5:3a:f2:25:1f:
                    ee:da:e6:61:0e:40:0e:71:1f:78:ce:b5:4a:14:32:
                    eb:d9:86:3d:3e:43:34:56:71:bb:af:c5:04:3b:ce:
                    96:e3
                Exponent: 65537 (0x10001)
        X509v3 extensions:
            X509v3 Basic Constraints: 
                CA:FALSE
            Netscape Comment: 
                OpenSSL Generated Certificate
            X509v3 Subject Key Identifier: 
                A2:7F:25:31:43:22:13:24:C5:94:B3:15:7E:7B:3B:4A:D9:0E:C5:8A
            X509v3 Authority Key Identifier: 
                keyid:C0:2C:B3:C6:96:26:48:D2:12:34:D0:37:AF:84:16:12:5B:FE:91:D7

    Signature Algorithm: sha1WithRSAEncryption
        2e:18:64:b3:fe:02:e4:33:ce:17:97:30:ff:7c:ad:a8:8f:4e:
        e9:99:dd:a0:08:32:e7:3a:87:ee:87:ca:6e:82:16:1f:58:e0:
        1a:7c:d4:a6:8d:d0:ff:3e:00:75:ed:d7:d4:5d:b4:31:27:9f:
        85:4a:44:01:a0:95:13:85:14:0d:45:a0:5f:08:dc:78:7f:22:
        8a:c4:de:bd:59:04:2d:3a:f8:d5:71:73:e8:30:75:13:8f:01:
        f6:fd:2f:a3:f5:a5:2e:f6:9f:24:49:ca:7d:f6:45:6d:12:55:
        8e:f6:91:82:5b:df:e7:0f:a2:3e:a8:ee:28:3b:b1:f9:78:a2:
        af:83:fa:76:41:2f:f2:b6:dd:c7:89:c5:51:86:06:46:d4:da:
        8d:73:4e:7b:e6:aa:a6:20:93:7b:24:02:6a:7e:ca:a0:05:f0:
        6d:15:4c:22:70:d0:75:6c:7d:1f:6d:da:1f:0f:a9:b8:08:4a:
        af:85:d6:0b:36:60:71:4a:be:ca:25:54:ef:9a:4c:35:41:44:
        2e:02:5b:99:ce:f2:70:33:10:e7:f4:91:32:90:1e:3a:ba:b6:
        c2:96:8b:da:91:c3:64:d6:e4:2c:61:b9:c8:c2:07:db:85:69:
        47:f7:42:a5:dd:a7:f4:8a:b6:fb:61:ca:80:d3:1d:69:3f:69:
        ea:ef:b0:99
-----BEGIN CERTIFICATE-----
MIIDqzCCApOgAwIBAgIBAzANBgkqhkiG9w0BAQUFADBbMQswCQYDVQQGEwJDSDEP
MA0GA1UECAwGWnVyaWNoMQ8wDQYDVQQHDAZadXJpY2gxEDAOBgNVBAoMB2lNb3Zp
ZXMxCzAJBgNVBAsMAkNBMQswCQYDVQQDDAJDQTAeFw0xNzExMTUxNjQ0MjJaFw0x
ODExMTUxNjQ0MjJaMFoxCzAJBgNVBAYTAkNIMQ8wDQYDVQQIDAZadXJpY2gxEDAO
BgNVBAoMB2lNb3ZpZXMxFzAVBgNVBAsMDkluZnJhc3RydWN0dXJlMQ8wDQYDVQQD
DAZiYWNrdXAwggEiMA0GCSqGSIb3DQEBAQUAA4IBDwAwggEKAoIBAQDgXDa5wwcQ
VfdN3MhVJn8HnMUnlh2Xb5NeJPAa3tW9PvrRHbtWxOoqa5MAP7uBtH0NuOdpwBZT
wsShAd4rulGGRjsdY4gcm7tmZEROkN7R4IAhirB6gZ6ibyfrGap9TLinF2tLt62b
FVnMtXNUpNwL7QDBXHI9aKxsB1a+RJN0QkcIPVXkZcJv1/V+g4F/+0vRlR7eoJwy
1CVYfM8R+zTNmWbcSyqv0hg6YaEyStCdWXn6mBnPmRlgl9+CgarboEmFmU6CfuHA
5cv48qdGNLNaJUf/ZuLzbbwXvhzlOvIlH+7a5mEOQA5xH3jOtUoUMuvZhj0+QzRW
cbuvxQQ7zpbjAgMBAAGjezB5MAkGA1UdEwQCMAAwLAYJYIZIAYb4QgENBB8WHU9w
ZW5TU0wgR2VuZXJhdGVkIENlcnRpZmljYXRlMB0GA1UdDgQWBBSifyUxQyITJMWU
sxV+eztK2Q7FijAfBgNVHSMEGDAWgBTALLPGliZI0hI00DevhBYSW/6R1zANBgkq
hkiG9w0BAQUFAAOCAQEALhhks/4C5DPOF5cw/3ytqI9O6ZndoAgy5zqH7ofKboIW
H1jgGnzUpo3Q/z4Ade3X1F20MSefhUpEAaCVE4UUDUWgXwjceH8iisTevVkELTr4
1XFz6DB1E48B9v0vo/WlLvafJEnKffZFbRJVjvaRglvf5w+iPqjuKDux+Xiir4P6
dkEv8rbdx4nFUYYGRtTajXNOe+aqpiCTeyQCan7KoAXwbRVMInDQdWx9H23aHw+p
uAhKr4XWCzZgcUq+yiVU75pMNUFELgJbmc7ycDMQ5/SRMpAeOrq2wpaL2pHDZNbk
LGG5yMIH24VpR/dCpd2n9Iq2+2HKgNMdaT9p6u+wmQ==
-----END CERTIFICATE-----
