Certificate:
    Data:
        Version: 3 (0x2)
        Serial Number: 6 (0x6)
        Signature Algorithm: sha1WithRSAEncryption
        Issuer: C=CH, ST=Zurich, L=Zurich, O=iMovies, OU=CA, CN=CA
        Validity
            Not Before: Nov 21 14:03:03 2017 GMT
            Not After : Nov 21 14:03:03 2018 GMT
        Subject: C=CH, ST=Zurich, O=iMovies, OU=Administration, CN=ca_admin
        Subject Public Key Info:
            Public Key Algorithm: rsaEncryption
            RSA Public Key: (2048 bit)
                Modulus (2048 bit):
                    00:9f:33:1e:9b:23:42:52:79:81:98:56:3c:4a:ad:
                    b8:91:c5:64:9b:c9:64:f5:f6:2b:7c:a2:0c:d9:a2:
                    44:76:c0:41:7f:01:57:f0:54:ce:09:52:39:78:4b:
                    ca:ea:f0:0b:41:89:96:ee:27:fd:01:2b:3f:c5:47:
                    5a:5e:b0:be:67:a0:11:71:5f:99:d0:1c:84:a0:3b:
                    af:92:da:d4:22:53:16:7e:be:66:1e:db:4e:a2:15:
                    5f:6d:fe:b3:3b:ce:26:97:49:04:44:b0:e5:46:b5:
                    46:c2:0b:13:63:10:02:30:39:cf:8f:eb:f8:68:6a:
                    47:4a:87:4c:81:fc:31:48:1c:9b:e4:16:76:e7:a3:
                    ee:9f:36:b7:bf:ee:8b:ae:62:fb:f9:be:70:e0:5b:
                    fb:88:6e:d4:2a:71:d3:42:b9:39:bd:d9:ec:71:ab:
                    5d:eb:3c:4b:2f:f6:47:c3:c3:c4:1a:7c:01:24:72:
                    67:5a:6b:e1:38:cb:66:e2:2b:dd:43:35:10:78:04:
                    73:2c:14:2a:67:9d:6e:7e:a0:39:a5:9f:3c:61:26:
                    f5:33:5d:29:c3:62:38:f8:ec:dc:40:56:fe:5f:1d:
                    e4:0c:54:57:ef:10:92:90:11:12:dc:72:0b:61:fc:
                    a2:f7:17:56:54:38:56:ca:d6:08:4a:ab:60:45:cb:
                    b1:3f
                Exponent: 65537 (0x10001)
        X509v3 extensions:
            X509v3 Basic Constraints: 
                CA:FALSE
            Netscape Comment: 
                OpenSSL Generated Certificate
            X509v3 Subject Key Identifier: 
                1C:17:9F:AD:04:25:9D:FB:A5:FE:AE:88:45:D9:C6:C9:82:23:09:70
            X509v3 Authority Key Identifier: 
                keyid:C0:2C:B3:C6:96:26:48:D2:12:34:D0:37:AF:84:16:12:5B:FE:91:D7

    Signature Algorithm: sha1WithRSAEncryption
        0d:3b:db:21:65:be:74:15:12:59:4f:23:4f:09:bc:47:86:a8:
        a8:dd:63:59:bc:85:64:84:69:61:8a:75:b7:9e:17:8c:c9:24:
        1e:d4:49:44:a0:f0:05:53:c7:f8:33:2e:b1:d9:7b:42:83:f9:
        9c:8d:35:bd:8c:cb:f5:ae:d8:57:eb:8f:00:8a:c4:94:11:a1:
        b7:77:57:91:a0:9b:16:47:51:ab:44:24:6d:30:b6:c4:fb:91:
        df:4d:92:e7:14:e1:5d:22:ee:4a:83:17:26:32:ab:5d:d2:69:
        d3:40:8c:52:56:7a:fa:ef:c0:56:67:b8:65:56:aa:1d:4a:e0:
        7e:2e:27:66:d8:f6:2f:0f:bd:64:25:93:eb:29:ec:0f:53:8e:
        34:ac:11:56:93:cf:12:7c:41:f4:80:d7:d3:af:a7:75:ef:46:
        98:49:41:ad:51:73:d3:10:0d:9e:8a:41:2e:e4:c0:10:7c:6b:
        e2:ae:08:04:67:c1:43:41:8d:7e:24:b5:19:9a:d0:ec:ba:f0:
        c8:ac:20:08:f5:0d:bf:ed:98:4a:a6:d6:69:1e:91:37:6a:bc:
        2b:e5:7c:98:73:1d:90:bc:8f:0e:49:9c:18:98:de:d9:d4:12:
        76:5a:e1:3f:3a:7d:86:77:83:90:5c:31:88:85:84:be:c3:a8:
        6c:87:c0:f5
-----BEGIN CERTIFICATE-----
MIIDrTCCApWgAwIBAgIBBjANBgkqhkiG9w0BAQUFADBbMQswCQYDVQQGEwJDSDEP
MA0GA1UECAwGWnVyaWNoMQ8wDQYDVQQHDAZadXJpY2gxEDAOBgNVBAoMB2lNb3Zp
ZXMxCzAJBgNVBAsMAkNBMQswCQYDVQQDDAJDQTAeFw0xNzExMjExNDAzMDNaFw0x
ODExMjExNDAzMDNaMFwxCzAJBgNVBAYTAkNIMQ8wDQYDVQQIDAZadXJpY2gxEDAO
BgNVBAoMB2lNb3ZpZXMxFzAVBgNVBAsMDkFkbWluaXN0cmF0aW9uMREwDwYDVQQD
DAhjYV9hZG1pbjCCASIwDQYJKoZIhvcNAQEBBQADggEPADCCAQoCggEBAJ8zHpsj
QlJ5gZhWPEqtuJHFZJvJZPX2K3yiDNmiRHbAQX8BV/BUzglSOXhLyurwC0GJlu4n
/QErP8VHWl6wvmegEXFfmdAchKA7r5La1CJTFn6+Zh7bTqIVX23+szvOJpdJBESw
5Ua1RsILE2MQAjA5z4/r+GhqR0qHTIH8MUgcm+QWduej7p82t7/ui65i+/m+cOBb
+4hu1Cpx00K5Ob3Z7HGrXes8Sy/2R8PDxBp8ASRyZ1pr4TjLZuIr3UM1EHgEcywU
Kmedbn6gOaWfPGEm9TNdKcNiOPjs3EBW/l8d5AxUV+8QkpAREtxyC2H8ovcXVlQ4
VsrWCEqrYEXLsT8CAwEAAaN7MHkwCQYDVR0TBAIwADAsBglghkgBhvhCAQ0EHxYd
T3BlblNTTCBHZW5lcmF0ZWQgQ2VydGlmaWNhdGUwHQYDVR0OBBYEFBwXn60EJZ37
pf6uiEXZxsmCIwlwMB8GA1UdIwQYMBaAFMAss8aWJkjSEjTQN6+EFhJb/pHXMA0G
CSqGSIb3DQEBBQUAA4IBAQANO9shZb50FRJZTyNPCbxHhqio3WNZvIVkhGlhinW3
nheMySQe1ElEoPAFU8f4My6x2XtCg/mcjTW9jMv1rthX648AisSUEaG3d1eRoJsW
R1GrRCRtMLbE+5HfTZLnFOFdIu5KgxcmMqtd0mnTQIxSVnr678BWZ7hlVqodSuB+
Lidm2PYvD71kJZPrKewPU440rBFWk88SfEH0gNfTr6d170aYSUGtUXPTEA2eikEu
5MAQfGvirggEZ8FDQY1+JLUZmtDsuvDIrCAI9Q2/7ZhKptZpHpE3arwr5XyYcx2Q
vI8OSZwYmN7Z1BJ2WuE/On2Gd4OQXDGIhYS+w6hsh8D1
-----END CERTIFICATE-----
