Certificate:
    Data:
        Version: 3 (0x2)
        Serial Number: 5 (0x5)
        Signature Algorithm: sha1WithRSAEncryption
        Issuer: C=CH, ST=Zurich, L=Zurich, O=iMovies, OU=CA, CN=CA
        Validity
            Not Before: Nov 22 10:35:53 2017 GMT
            Not After : Nov 22 10:35:53 2018 GMT
        Subject: C=CH, ST=Zurich, O=iMovies, OU=Administration, CN=ca_admin
        Subject Public Key Info:
            Public Key Algorithm: rsaEncryption
            RSA Public Key: (2048 bit)
                Modulus (2048 bit):
                    00:b0:b6:2e:29:ff:c7:12:02:26:b0:09:c3:b8:26:
                    ac:93:57:1d:06:e8:80:21:e6:33:2a:1f:f8:a9:85:
                    d6:e2:25:19:fd:a2:d9:12:99:72:71:8a:56:9b:41:
                    37:ec:ea:e8:bb:46:fb:98:d1:9a:fd:58:07:c0:25:
                    14:18:15:fa:15:ad:cc:e1:0a:7c:02:56:fd:52:fa:
                    f4:30:17:17:7c:3d:a7:d5:9a:37:79:ec:91:45:43:
                    31:b5:a6:eb:51:42:41:3e:cd:c2:21:4d:1e:c0:a2:
                    03:ed:6e:6e:7a:ef:f5:3e:c1:e7:01:d7:35:e6:55:
                    3f:79:50:09:90:7f:1e:65:9e:cc:db:82:83:c1:d2:
                    c4:b9:91:c5:e3:69:dd:ff:8e:66:95:04:27:20:b0:
                    ff:f4:a6:80:ca:78:14:a8:e1:6b:3d:c3:6f:bb:dc:
                    e4:63:3c:27:21:25:41:8c:b0:11:0f:6f:a0:ea:a4:
                    ed:cd:59:0a:99:bb:54:70:00:49:a5:2b:ea:c7:9a:
                    f4:af:0e:7b:20:c4:43:4c:ec:4d:b2:a4:00:08:c2:
                    17:eb:52:76:ed:93:f1:48:b0:2c:a8:d4:e4:5f:ee:
                    c5:14:b5:66:72:5d:2c:cf:98:cc:ff:15:da:ae:1a:
                    32:32:d1:77:a5:83:0b:4e:d8:c0:4f:a2:26:e2:0c:
                    b1:81
                Exponent: 65537 (0x10001)
        X509v3 extensions:
            X509v3 Basic Constraints: 
                CA:FALSE
            Netscape Comment: 
                OpenSSL Generated Certificate
            X509v3 Subject Key Identifier: 
                F2:48:B5:DA:62:E9:6B:08:4F:95:17:3F:24:6C:43:2A:70:C2:76:B1
            X509v3 Authority Key Identifier: 
                keyid:C0:2C:B3:C6:96:26:48:D2:12:34:D0:37:AF:84:16:12:5B:FE:91:D7

    Signature Algorithm: sha1WithRSAEncryption
        61:9b:50:99:c7:ef:75:5c:db:9e:1b:a5:67:77:7c:cd:04:46:
        bf:63:54:dc:5a:2b:0b:76:9b:48:a3:3f:83:53:b8:ff:2c:fe:
        8e:93:34:c2:78:33:04:f9:f5:cf:81:82:bc:b2:a2:3d:62:88:
        f9:8a:a4:5e:8b:e4:da:ab:dd:94:87:1d:5d:ed:39:4a:77:5d:
        93:92:a2:50:04:ba:28:65:21:6f:cd:50:f2:6a:e8:45:bd:08:
        b1:12:52:d6:a0:bd:a5:ad:ce:4f:ba:8c:51:34:a3:8b:12:9b:
        78:da:40:19:83:3e:29:5c:25:ff:4b:56:54:71:de:0e:de:b2:
        bc:6d:4b:fd:d0:07:67:9e:7d:2c:dd:3a:00:c8:e4:67:f1:c8:
        12:d2:71:2b:21:cb:9f:75:2e:c1:7b:5d:06:1b:b5:9f:35:62:
        c4:c9:32:88:cf:5b:df:a6:18:ad:01:5b:8c:05:35:be:66:a2:
        1b:db:91:89:ad:57:f5:4b:c5:df:72:5a:fa:bc:d7:7c:21:a6:
        b4:aa:5b:c4:6f:09:ef:9a:2a:75:a8:96:96:ad:e7:4f:da:e6:
        1c:99:06:81:43:fb:b2:b5:ca:f0:51:22:81:1c:b4:f2:7b:2d:
        ae:b5:c4:84:70:04:a0:8a:9a:b6:6e:79:41:4b:80:cf:8d:9b:
        0b:06:70:46
-----BEGIN CERTIFICATE-----
MIIDrTCCApWgAwIBAgIBBTANBgkqhkiG9w0BAQUFADBbMQswCQYDVQQGEwJDSDEP
MA0GA1UECAwGWnVyaWNoMQ8wDQYDVQQHDAZadXJpY2gxEDAOBgNVBAoMB2lNb3Zp
ZXMxCzAJBgNVBAsMAkNBMQswCQYDVQQDDAJDQTAeFw0xNzExMjIxMDM1NTNaFw0x
ODExMjIxMDM1NTNaMFwxCzAJBgNVBAYTAkNIMQ8wDQYDVQQIDAZadXJpY2gxEDAO
BgNVBAoMB2lNb3ZpZXMxFzAVBgNVBAsMDkFkbWluaXN0cmF0aW9uMREwDwYDVQQD
DAhjYV9hZG1pbjCCASIwDQYJKoZIhvcNAQEBBQADggEPADCCAQoCggEBALC2Lin/
xxICJrAJw7gmrJNXHQbogCHmMyof+KmF1uIlGf2i2RKZcnGKVptBN+zq6LtG+5jR
mv1YB8AlFBgV+hWtzOEKfAJW/VL69DAXF3w9p9WaN3nskUVDMbWm61FCQT7NwiFN
HsCiA+1ubnrv9T7B5wHXNeZVP3lQCZB/HmWezNuCg8HSxLmRxeNp3f+OZpUEJyCw
//SmgMp4FKjhaz3Db7vc5GM8JyElQYywEQ9voOqk7c1ZCpm7VHAASaUr6sea9K8O
eyDEQ0zsTbKkAAjCF+tSdu2T8UiwLKjU5F/uxRS1ZnJdLM+YzP8V2q4aMjLRd6WD
C07YwE+iJuIMsYECAwEAAaN7MHkwCQYDVR0TBAIwADAsBglghkgBhvhCAQ0EHxYd
T3BlblNTTCBHZW5lcmF0ZWQgQ2VydGlmaWNhdGUwHQYDVR0OBBYEFPJItdpi6WsI
T5UXPyRsQypwwnaxMB8GA1UdIwQYMBaAFMAss8aWJkjSEjTQN6+EFhJb/pHXMA0G
CSqGSIb3DQEBBQUAA4IBAQBhm1CZx+91XNueG6Vnd3zNBEa/Y1TcWisLdptIoz+D
U7j/LP6OkzTCeDME+fXPgYK8sqI9Yoj5iqRei+Taq92Uhx1d7TlKd12TkqJQBLoo
ZSFvzVDyauhFvQixElLWoL2lrc5PuoxRNKOLEpt42kAZgz4pXCX/S1ZUcd4O3rK8
bUv90Adnnn0s3ToAyORn8cgS0nErIcufdS7Be10GG7WfNWLEyTKIz1vfphitAVuM
BTW+ZqIb25GJrVf1S8Xfclr6vNd8Iaa0qlvEbwnvmip1qJaWredP2uYcmQaBQ/uy
tcrwUSKBHLTyey2utcSEcASgipq2bnlBS4DPjZsLBnBG
-----END CERTIFICATE-----
