Certificate:
    Data:
        Version: 3 (0x2)
        Serial Number: 1 (0x1)
        Signature Algorithm: sha1WithRSAEncryption
        Issuer: C=CH, ST=Zurich, L=Zurich, O=iMovies, OU=CA, CN=CA
        Validity
            Not Before: Nov 21 13:53:12 2017 GMT
            Not After : Nov 21 13:53:12 2018 GMT
        Subject: C=CH, ST=Zurich, O=iMovies, OU=Administration, CN=192.168.50.31
        Subject Public Key Info:
            Public Key Algorithm: rsaEncryption
            RSA Public Key: (2048 bit)
                Modulus (2048 bit):
                    00:b1:8b:82:e6:2c:b7:5f:f1:49:20:48:21:c1:0b:
                    5e:28:a8:a0:8d:96:25:dc:b6:32:4b:c2:ab:2a:1c:
                    bf:1e:15:99:34:76:5c:af:33:d9:6a:6a:01:f3:17:
                    e2:d1:3b:11:a2:ba:8b:8e:e4:ff:96:5b:c9:16:a1:
                    12:eb:ee:79:79:9d:ea:11:6b:48:68:88:fc:14:20:
                    02:0b:31:7c:06:a3:1c:f1:a3:08:25:33:a5:b4:76:
                    8f:1b:8c:48:bd:d0:77:00:c1:3c:7e:17:8f:37:6a:
                    44:fc:3d:8f:4f:4b:b5:d4:5e:0b:e4:5e:c9:fb:46:
                    07:42:a6:5c:b9:7d:68:0a:54:7d:04:c4:da:a8:a9:
                    7a:60:8a:27:31:57:ae:70:d9:6c:8c:74:f5:5a:78:
                    cd:7e:33:1a:77:66:53:f1:48:24:ec:fa:dd:2f:84:
                    c6:3a:48:49:a3:44:92:73:0d:92:2d:b8:f0:bd:d6:
                    0e:da:7d:bb:03:47:0a:4c:02:35:be:a4:35:75:bb:
                    99:eb:fa:c8:54:96:f1:78:96:cb:27:8d:f7:1f:82:
                    cf:8e:19:71:34:05:87:7f:fb:c2:8c:ff:51:99:2e:
                    2c:58:72:60:28:a1:e5:b9:71:13:47:bb:87:0e:bd:
                    72:8e:0e:ac:b1:f8:c3:b6:a0:71:1d:eb:93:43:db:
                    63:a1
                Exponent: 65537 (0x10001)
        X509v3 extensions:
            X509v3 Basic Constraints: 
                CA:FALSE
            Netscape Comment: 
                OpenSSL Generated Certificate
            X509v3 Subject Key Identifier: 
                F3:41:15:0C:BA:87:58:F7:4B:53:E1:F7:B9:27:12:98:8B:52:8D:D4
            X509v3 Authority Key Identifier: 
                keyid:C0:2C:B3:C6:96:26:48:D2:12:34:D0:37:AF:84:16:12:5B:FE:91:D7

    Signature Algorithm: sha1WithRSAEncryption
        5c:30:7a:74:98:49:0b:e5:95:dd:a2:b5:1c:16:66:c9:90:ad:
        79:9f:c5:b4:3b:91:ee:15:b2:d4:fc:b0:1f:28:90:34:88:f4:
        cb:cd:6c:ce:a5:bf:c0:17:23:bf:d5:4a:ba:81:7d:fc:af:29:
        4d:78:1e:17:26:29:01:16:fc:f0:e9:55:39:f9:1f:0a:cf:fc:
        f5:ff:2f:a9:0c:7a:d9:ec:36:b6:63:f9:4b:72:ea:69:6e:93:
        9a:bf:21:48:1c:68:c0:52:43:45:77:0a:52:d7:61:47:b4:14:
        9a:fe:9b:58:e7:7e:92:1d:df:3f:f9:4a:5a:d2:99:37:67:fc:
        10:67:d8:15:17:f9:dc:6b:57:84:c4:5c:62:3a:bb:f6:5e:dd:
        31:1d:2d:59:34:65:21:a2:71:6b:50:37:7a:57:8f:a9:05:97:
        15:4e:9e:2f:89:b6:30:20:ca:67:fc:6a:e8:f5:24:37:be:67:
        ab:d7:8f:e3:c4:4d:a9:0e:e8:ad:c7:c2:e8:60:3b:c2:35:b9:
        55:d7:46:e8:fc:f8:25:93:98:a4:c8:88:4a:16:5f:4b:56:76:
        53:60:eb:94:1a:67:d3:75:01:84:82:1b:01:3e:2d:70:2b:f1:
        7c:b3:60:fb:bc:dd:3e:ae:a0:f0:28:c1:46:64:87:24:b7:c4:
        34:e7:b8:57
-----BEGIN CERTIFICATE-----
MIIDsjCCApqgAwIBAgIBATANBgkqhkiG9w0BAQUFADBbMQswCQYDVQQGEwJDSDEP
MA0GA1UECAwGWnVyaWNoMQ8wDQYDVQQHDAZadXJpY2gxEDAOBgNVBAoMB2lNb3Zp
ZXMxCzAJBgNVBAsMAkNBMQswCQYDVQQDDAJDQTAeFw0xNzExMjExMzUzMTJaFw0x
ODExMjExMzUzMTJaMGExCzAJBgNVBAYTAkNIMQ8wDQYDVQQIDAZadXJpY2gxEDAO
BgNVBAoMB2lNb3ZpZXMxFzAVBgNVBAsMDkFkbWluaXN0cmF0aW9uMRYwFAYDVQQD
DA0xOTIuMTY4LjUwLjMxMIIBIjANBgkqhkiG9w0BAQEFAAOCAQ8AMIIBCgKCAQEA
sYuC5iy3X/FJIEghwQteKKigjZYl3LYyS8KrKhy/HhWZNHZcrzPZamoB8xfi0TsR
orqLjuT/llvJFqES6+55eZ3qEWtIaIj8FCACCzF8BqMc8aMIJTOltHaPG4xIvdB3
AME8fhePN2pE/D2PT0u11F4L5F7J+0YHQqZcuX1oClR9BMTaqKl6YIonMVeucNls
jHT1WnjNfjMad2ZT8Ugk7PrdL4TGOkhJo0SScw2SLbjwvdYO2n27A0cKTAI1vqQ1
dbuZ6/rIVJbxeJbLJ433H4LPjhlxNAWHf/vCjP9RmS4sWHJgKKHluXETR7uHDr1y
jg6ssfjDtqBxHeuTQ9tjoQIDAQABo3sweTAJBgNVHRMEAjAAMCwGCWCGSAGG+EIB
DQQfFh1PcGVuU1NMIEdlbmVyYXRlZCBDZXJ0aWZpY2F0ZTAdBgNVHQ4EFgQU80EV
DLqHWPdLU+H3uScSmItSjdQwHwYDVR0jBBgwFoAUwCyzxpYmSNISNNA3r4QWElv+
kdcwDQYJKoZIhvcNAQEFBQADggEBAFwwenSYSQvlld2itRwWZsmQrXmfxbQ7ke4V
stT8sB8okDSI9MvNbM6lv8AXI7/VSrqBffyvKU14HhcmKQEW/PDpVTn5HwrP/PX/
L6kMetnsNrZj+Uty6mluk5q/IUgcaMBSQ0V3ClLXYUe0FJr+m1jnfpId3z/5SlrS
mTdn/BBn2BUX+dxrV4TEXGI6u/Ze3TEdLVk0ZSGicWtQN3pXj6kFlxVOni+JtjAg
ymf8auj1JDe+Z6vXj+PETakO6K3HwuhgO8I1uVXXRuj8+CWTmKTIiEoWX0tWdlNg
65QaZ9N1AYSCGwE+LXAr8XyzYPu83T6uoPAowUZkhyS3xDTnuFc=
-----END CERTIFICATE-----
