Certificate:
    Data:
        Version: 3 (0x2)
        Serial Number: 5 (0x5)
        Signature Algorithm: sha1WithRSAEncryption
        Issuer: C=CH, ST=Zurich, L=Zurich, O=iMovies, OU=CA, CN=CA
        Validity
            Not Before: Nov 15 16:44:43 2017 GMT
            Not After : Nov 15 16:44:43 2018 GMT
        Subject: C=CH, ST=Zurich, O=iMovies, OU=Infrastructure, CN=database
        Subject Public Key Info:
            Public Key Algorithm: rsaEncryption
            RSA Public Key: (2048 bit)
                Modulus (2048 bit):
                    00:d5:1b:99:a5:de:a3:2a:34:1a:9e:a8:64:60:12:
                    4d:27:03:3b:d5:63:b3:cd:85:29:29:45:e5:c0:e9:
                    8b:f7:6c:0a:42:c7:87:da:53:64:d8:33:cb:54:cc:
                    20:79:65:2c:b3:4d:ff:7c:1e:60:87:36:00:7e:ed:
                    27:be:a9:75:b0:d1:fd:28:6b:dc:8a:13:29:63:49:
                    bd:b0:00:28:76:0b:a7:3d:3a:46:6b:db:ea:02:1d:
                    67:86:6f:c1:96:ba:89:99:d5:91:0b:f1:7e:fb:35:
                    9d:54:d1:9b:f7:54:d8:d9:9d:25:68:3e:61:11:42:
                    cc:fa:b3:2f:5d:15:01:6f:57:59:fe:11:72:51:63:
                    3b:fe:d5:0e:18:3b:80:15:c3:35:5a:d6:48:0a:e6:
                    80:84:b3:03:f1:b6:ae:90:43:fd:fc:9e:0c:cd:a0:
                    6f:8e:66:57:fc:83:fa:e9:4e:43:fe:3d:cf:bc:08:
                    06:67:93:4f:3e:12:8d:c1:e4:5f:84:5e:24:e1:f3:
                    7a:0a:b0:30:f0:8e:55:67:a3:17:b6:9e:39:56:2c:
                    65:15:3d:ee:29:fb:2a:ec:c8:76:52:c7:d9:89:56:
                    d8:a4:ce:81:54:6f:c5:ca:54:fb:5a:d2:33:38:67:
                    7c:ce:4d:c2:b0:b5:7c:67:6e:1b:2f:8b:32:e6:8c:
                    7e:93
                Exponent: 65537 (0x10001)
        X509v3 extensions:
            X509v3 Basic Constraints: 
                CA:FALSE
            Netscape Comment: 
                OpenSSL Generated Certificate
            X509v3 Subject Key Identifier: 
                5F:A8:99:87:C5:36:57:7C:E6:F8:B1:CE:23:B4:25:66:47:AC:ED:24
            X509v3 Authority Key Identifier: 
                keyid:C0:2C:B3:C6:96:26:48:D2:12:34:D0:37:AF:84:16:12:5B:FE:91:D7

    Signature Algorithm: sha1WithRSAEncryption
        20:bd:c8:65:ba:01:e4:e4:f4:c8:82:f2:16:7e:e8:25:f0:b2:
        b1:da:8d:fc:49:93:5d:a2:50:7f:ac:60:d7:97:73:bf:f0:ff:
        c1:63:1c:67:08:e7:ab:20:9a:eb:cb:46:58:4e:b0:7e:bf:a4:
        38:8d:81:e2:b2:d3:16:bb:22:d8:55:11:a5:6c:3f:c8:33:55:
        8a:3b:cc:05:0c:0f:c8:6d:4a:76:00:0f:20:91:d7:95:bd:65:
        66:8f:7b:be:b3:c9:5e:8a:3e:73:17:e2:d6:d9:d4:ae:2f:ad:
        72:a2:65:62:2e:d8:19:14:30:77:c5:84:a3:cb:08:62:7a:3b:
        c5:be:6a:31:0a:9d:73:83:8f:c7:68:a9:5f:33:7b:59:40:4b:
        2c:bd:bc:ac:4e:9f:41:e1:d1:24:6d:45:bd:5f:fb:3e:b4:eb:
        6f:53:c4:7d:96:37:27:c1:fb:cf:1e:a6:07:b3:2e:23:c0:d6:
        ef:51:7c:94:31:93:15:d5:0c:d2:18:58:6a:bf:d4:a5:25:39:
        c9:92:40:ae:c5:08:3c:81:87:bd:1f:75:f3:b0:ac:95:c3:e4:
        49:08:66:b3:bf:4a:07:b1:9e:36:f3:68:1a:be:35:ef:40:2b:
        75:9b:3e:ac:9e:06:91:2c:fa:75:bf:18:98:a7:48:18:77:ad:
        39:04:a2:dd
-----BEGIN CERTIFICATE-----
MIIDrTCCApWgAwIBAgIBBTANBgkqhkiG9w0BAQUFADBbMQswCQYDVQQGEwJDSDEP
MA0GA1UECAwGWnVyaWNoMQ8wDQYDVQQHDAZadXJpY2gxEDAOBgNVBAoMB2lNb3Zp
ZXMxCzAJBgNVBAsMAkNBMQswCQYDVQQDDAJDQTAeFw0xNzExMTUxNjQ0NDNaFw0x
ODExMTUxNjQ0NDNaMFwxCzAJBgNVBAYTAkNIMQ8wDQYDVQQIDAZadXJpY2gxEDAO
BgNVBAoMB2lNb3ZpZXMxFzAVBgNVBAsMDkluZnJhc3RydWN0dXJlMREwDwYDVQQD
DAhkYXRhYmFzZTCCASIwDQYJKoZIhvcNAQEBBQADggEPADCCAQoCggEBANUbmaXe
oyo0Gp6oZGASTScDO9Vjs82FKSlF5cDpi/dsCkLHh9pTZNgzy1TMIHllLLNN/3we
YIc2AH7tJ76pdbDR/Shr3IoTKWNJvbAAKHYLpz06Rmvb6gIdZ4ZvwZa6iZnVkQvx
fvs1nVTRm/dU2NmdJWg+YRFCzPqzL10VAW9XWf4RclFjO/7VDhg7gBXDNVrWSArm
gISzA/G2rpBD/fyeDM2gb45mV/yD+ulOQ/49z7wIBmeTTz4SjcHkX4ReJOHzegqw
MPCOVWejF7aeOVYsZRU97in7KuzIdlLH2YlW2KTOgVRvxcpU+1rSMzhnfM5NwrC1
fGduGy+LMuaMfpMCAwEAAaN7MHkwCQYDVR0TBAIwADAsBglghkgBhvhCAQ0EHxYd
T3BlblNTTCBHZW5lcmF0ZWQgQ2VydGlmaWNhdGUwHQYDVR0OBBYEFF+omYfFNld8
5vixziO0JWZHrO0kMB8GA1UdIwQYMBaAFMAss8aWJkjSEjTQN6+EFhJb/pHXMA0G
CSqGSIb3DQEBBQUAA4IBAQAgvchlugHk5PTIgvIWfugl8LKx2o38SZNdolB/rGDX
l3O/8P/BYxxnCOerIJrry0ZYTrB+v6Q4jYHistMWuyLYVRGlbD/IM1WKO8wFDA/I
bUp2AA8gkdeVvWVmj3u+s8leij5zF+LW2dSuL61yomViLtgZFDB3xYSjywhiejvF
vmoxCp1zg4/HaKlfM3tZQEssvbysTp9B4dEkbUW9X/s+tOtvU8R9ljcnwfvPHqYH
sy4jwNbvUXyUMZMV1QzSGFhqv9SlJTnJkkCuxQg8gYe9H3XzsKyVw+RJCGazv0oH
sZ4282gavjXvQCt1mz6sngaRLPp1vxiYp0gYd605BKLd
-----END CERTIFICATE-----
