Certificate:
    Data:
        Version: 3 (0x2)
        Serial Number: 2 (0x2)
        Signature Algorithm: sha1WithRSAEncryption
        Issuer: C=CH, ST=Zurich, L=Zurich, O=iMovies, OU=CA, CN=CA
        Validity
            Not Before: Nov 22 10:35:36 2017 GMT
            Not After : Nov 22 10:35:36 2018 GMT
        Subject: C=CH, ST=Zurich, O=iMovies, OU=Administration, CN=192.168.50.50
        Subject Public Key Info:
            Public Key Algorithm: rsaEncryption
            RSA Public Key: (2048 bit)
                Modulus (2048 bit):
                    00:ba:df:ed:f7:86:53:dc:35:d4:30:5f:8f:03:15:
                    3f:7d:11:66:53:a9:6b:34:4b:c9:15:99:0a:c0:6e:
                    6d:3c:83:c2:22:cb:15:4e:6d:29:e9:a5:e6:45:32:
                    a2:f0:ad:a8:ca:36:4b:87:e4:3b:d1:43:d5:8a:b1:
                    94:ba:1e:e7:79:4a:02:be:98:47:b7:b5:01:2f:f8:
                    55:23:2a:d0:fb:72:30:86:bb:c6:67:b5:db:22:2a:
                    0f:b3:ab:c9:01:5a:36:88:4b:2f:8c:8e:40:d6:c3:
                    5f:b7:76:6d:36:fa:dc:bd:6e:2f:30:a2:18:9c:60:
                    bc:5b:c5:08:1f:5b:84:27:13:49:3f:4e:f5:ba:c7:
                    da:b1:ab:0e:68:80:1b:9f:ec:96:0f:71:08:f8:6f:
                    39:17:a7:14:03:37:10:46:2a:0f:e3:15:c1:07:0e:
                    7e:47:80:d1:d9:c7:11:56:a1:aa:be:2c:d2:5c:75:
                    a5:81:a7:1c:bc:47:53:24:87:27:11:4c:7c:6e:9a:
                    2d:d8:c9:ec:77:4b:52:3a:3d:0e:da:17:0b:66:86:
                    c4:f5:7d:1d:23:ba:56:06:6a:77:be:8a:e4:4a:55:
                    bf:ef:19:52:08:6a:80:ac:71:f7:13:29:58:82:d8:
                    6d:4b:ec:b5:ab:a8:de:27:b5:8e:b5:5f:c8:43:36:
                    97:03
                Exponent: 65537 (0x10001)
        X509v3 extensions:
            X509v3 Basic Constraints: 
                CA:FALSE
            Netscape Comment: 
                OpenSSL Generated Certificate
            X509v3 Subject Key Identifier: 
                FD:EE:ED:D4:DB:3F:64:55:52:91:3E:D0:D0:D6:40:BF:CC:5A:35:FF
            X509v3 Authority Key Identifier: 
                keyid:C0:2C:B3:C6:96:26:48:D2:12:34:D0:37:AF:84:16:12:5B:FE:91:D7

    Signature Algorithm: sha1WithRSAEncryption
        04:6e:74:11:5f:cd:30:94:8f:e0:99:50:46:49:00:e9:5a:d1:
        86:cf:bd:6c:a9:bb:96:59:71:62:35:c9:77:10:10:d4:47:74:
        82:ef:61:ca:e2:e8:eb:4a:37:97:5f:0e:e5:5d:78:eb:6e:c7:
        2a:c4:cd:e7:44:ef:a1:a9:48:23:10:a0:de:10:0d:2c:7f:f4:
        7a:d0:55:8d:a2:29:ba:3c:e6:22:70:8a:5a:ba:37:0a:e6:d4:
        9c:a6:c3:b9:0b:57:ca:c1:44:6c:94:5e:b6:39:88:19:20:91:
        0d:72:f9:7d:4d:63:d2:18:89:26:aa:81:40:e1:a4:85:3b:e6:
        a4:29:83:15:4b:80:0e:c9:65:ad:c8:95:5b:b7:0a:93:7d:24:
        7e:31:71:0c:ab:5d:97:b0:b3:64:f4:55:d0:a5:82:be:c2:cb:
        b4:d5:a3:48:a4:28:25:25:25:08:d8:1a:50:d5:f6:0d:d4:79:
        3e:5a:35:df:63:b6:a6:27:ed:01:c0:d6:76:51:4c:47:ac:fa:
        dd:87:3f:62:3d:79:61:fe:f0:4b:c0:83:db:87:7c:5e:13:f4:
        66:cc:c0:bb:bd:1a:ba:e6:31:02:fc:e1:07:db:d4:54:76:00:
        48:80:66:8a:68:fd:69:fc:c4:df:6a:2c:74:59:4d:c2:ca:37:
        b7:e4:19:15
-----BEGIN CERTIFICATE-----
MIIDsjCCApqgAwIBAgIBAjANBgkqhkiG9w0BAQUFADBbMQswCQYDVQQGEwJDSDEP
MA0GA1UECAwGWnVyaWNoMQ8wDQYDVQQHDAZadXJpY2gxEDAOBgNVBAoMB2lNb3Zp
ZXMxCzAJBgNVBAsMAkNBMQswCQYDVQQDDAJDQTAeFw0xNzExMjIxMDM1MzZaFw0x
ODExMjIxMDM1MzZaMGExCzAJBgNVBAYTAkNIMQ8wDQYDVQQIDAZadXJpY2gxEDAO
BgNVBAoMB2lNb3ZpZXMxFzAVBgNVBAsMDkFkbWluaXN0cmF0aW9uMRYwFAYDVQQD
DA0xOTIuMTY4LjUwLjUwMIIBIjANBgkqhkiG9w0BAQEFAAOCAQ8AMIIBCgKCAQEA
ut/t94ZT3DXUMF+PAxU/fRFmU6lrNEvJFZkKwG5tPIPCIssVTm0p6aXmRTKi8K2o
yjZLh+Q70UPVirGUuh7neUoCvphHt7UBL/hVIyrQ+3IwhrvGZ7XbIioPs6vJAVo2
iEsvjI5A1sNft3ZtNvrcvW4vMKIYnGC8W8UIH1uEJxNJP071usfasasOaIAbn+yW
D3EI+G85F6cUAzcQRioP4xXBBw5+R4DR2ccRVqGqvizSXHWlgaccvEdTJIcnEUx8
bpot2Mnsd0tSOj0O2hcLZobE9X0dI7pWBmp3vorkSlW/7xlSCGqArHH3EylYgtht
S+y1q6jeJ7WOtV/IQzaXAwIDAQABo3sweTAJBgNVHRMEAjAAMCwGCWCGSAGG+EIB
DQQfFh1PcGVuU1NMIEdlbmVyYXRlZCBDZXJ0aWZpY2F0ZTAdBgNVHQ4EFgQU/e7t
1Ns/ZFVSkT7Q0NZAv8xaNf8wHwYDVR0jBBgwFoAUwCyzxpYmSNISNNA3r4QWElv+
kdcwDQYJKoZIhvcNAQEFBQADggEBAARudBFfzTCUj+CZUEZJAOla0YbPvWypu5ZZ
cWI1yXcQENRHdILvYcri6OtKN5dfDuVdeOtuxyrEzedE76GpSCMQoN4QDSx/9HrQ
VY2iKbo85iJwilq6Nwrm1Jymw7kLV8rBRGyUXrY5iBkgkQ1y+X1NY9IYiSaqgUDh
pIU75qQpgxVLgA7JZa3IlVu3CpN9JH4xcQyrXZews2T0VdClgr7Cy7TVo0ikKCUl
JQjYGlDV9g3UeT5aNd9jtqYn7QHA1nZRTEes+t2HP2I9eWH+8EvAg9uHfF4T9GbM
wLu9GrrmMQL84Qfb1FR2AEiAZopo/Wn8xN9qLHRZTcLKN7fkGRU=
-----END CERTIFICATE-----
