Certificate:
    Data:
        Version: 3 (0x2)
        Serial Number: 5 (0x5)
        Signature Algorithm: sha1WithRSAEncryption
        Issuer: C=CH, ST=Zurich, L=Zurich, O=iMovies, OU=CA, CN=CA
        Validity
            Not Before: Nov 21 14:02:47 2017 GMT
            Not After : Nov 21 14:02:47 2018 GMT
        Subject: C=CH, ST=Zurich, O=iMovies, OU=Administration, CN=192.168.50.50
        Subject Public Key Info:
            Public Key Algorithm: rsaEncryption
            RSA Public Key: (2048 bit)
                Modulus (2048 bit):
                    00:c6:97:86:08:cc:b0:e6:2f:00:af:b8:26:9f:2c:
                    26:9b:7e:58:45:88:0d:bf:92:de:3f:95:de:22:fa:
                    07:15:f8:fe:1a:ee:ef:fe:e5:42:22:9b:b4:7b:17:
                    c3:7d:9e:2e:c3:49:3a:ba:6f:bb:af:a0:84:8b:73:
                    f7:17:8c:18:7c:21:80:7f:ce:5a:8d:d8:53:25:5f:
                    c7:88:36:77:df:30:35:c3:86:5b:37:c7:d4:65:f6:
                    e2:dd:84:4b:15:80:43:88:43:da:fc:ae:ac:e4:b4:
                    a3:ce:44:a4:09:9a:d1:08:e6:f1:df:f7:0f:8f:f3:
                    75:db:ce:65:74:ed:79:d1:e1:c0:e0:e0:df:a5:c4:
                    47:a2:d9:75:82:bd:b2:f7:55:4b:e9:90:2f:31:de:
                    56:d5:b1:8f:ad:dc:90:9a:e0:74:6e:40:e2:4b:09:
                    d9:e1:63:c8:c6:de:ce:37:30:5f:51:64:28:84:c7:
                    77:43:62:19:c2:00:24:ba:31:aa:91:67:25:ea:d9:
                    e2:99:1c:7b:4d:94:9c:94:8f:1f:eb:3d:90:c6:7c:
                    30:a9:1d:31:c6:aa:74:fc:e2:3d:91:bc:90:8b:3e:
                    d6:a4:4b:89:0f:ff:84:f5:4f:7f:06:91:04:6a:d8:
                    85:62:8a:d0:40:82:93:15:31:c2:b0:6b:e3:87:fd:
                    69:0d
                Exponent: 65537 (0x10001)
        X509v3 extensions:
            X509v3 Basic Constraints: 
                CA:FALSE
            Netscape Comment: 
                OpenSSL Generated Certificate
            X509v3 Subject Key Identifier: 
                89:72:86:B3:D7:88:67:BC:95:2D:19:C4:3B:E8:2D:0B:45:24:82:C7
            X509v3 Authority Key Identifier: 
                keyid:C0:2C:B3:C6:96:26:48:D2:12:34:D0:37:AF:84:16:12:5B:FE:91:D7

    Signature Algorithm: sha1WithRSAEncryption
        a4:3b:59:e4:0d:a8:b3:06:58:be:ce:28:46:49:dc:e9:b6:a1:
        d1:07:43:31:26:e9:39:b1:42:be:01:30:f5:d0:34:ad:5f:0d:
        c3:32:2e:e1:7b:26:b3:04:27:bb:44:e0:c4:7f:04:99:9c:36:
        4e:e8:71:86:e9:66:3d:1d:bb:65:8e:ad:a7:14:d2:ed:fd:7a:
        cb:0e:a9:69:59:9a:91:8e:0e:a7:d7:7a:c4:6c:3b:e9:1b:ba:
        88:4b:3d:dd:ac:05:66:2e:40:3c:8b:d1:e1:56:1d:3b:cc:40:
        d5:76:b6:f9:0c:07:07:b3:cf:86:c3:30:99:ae:c6:ca:c0:a0:
        27:46:5e:79:0a:51:da:1b:43:61:b1:c8:28:e8:e0:7b:c7:0d:
        26:d2:b5:e7:20:5b:e7:26:1b:d5:29:a8:7b:fd:d2:c1:26:3f:
        e3:6d:61:b2:da:19:3c:bc:5e:1c:1d:c0:80:a1:9e:21:da:ee:
        22:23:50:0e:81:78:82:a5:e1:88:8c:e1:b9:7f:87:db:f5:fa:
        02:83:b1:da:d2:2f:a4:40:de:c6:ff:55:cd:8f:46:db:8c:9a:
        23:10:c8:a8:55:f7:ef:54:7a:84:85:f8:7a:e6:e5:c3:35:ae:
        6d:09:b9:73:d9:99:ff:d4:67:a2:da:73:19:52:c6:c7:32:1b:
        83:e6:a5:c0
-----BEGIN CERTIFICATE-----
MIIDsjCCApqgAwIBAgIBBTANBgkqhkiG9w0BAQUFADBbMQswCQYDVQQGEwJDSDEP
MA0GA1UECAwGWnVyaWNoMQ8wDQYDVQQHDAZadXJpY2gxEDAOBgNVBAoMB2lNb3Zp
ZXMxCzAJBgNVBAsMAkNBMQswCQYDVQQDDAJDQTAeFw0xNzExMjExNDAyNDdaFw0x
ODExMjExNDAyNDdaMGExCzAJBgNVBAYTAkNIMQ8wDQYDVQQIDAZadXJpY2gxEDAO
BgNVBAoMB2lNb3ZpZXMxFzAVBgNVBAsMDkFkbWluaXN0cmF0aW9uMRYwFAYDVQQD
DA0xOTIuMTY4LjUwLjUwMIIBIjANBgkqhkiG9w0BAQEFAAOCAQ8AMIIBCgKCAQEA
xpeGCMyw5i8Ar7gmnywmm35YRYgNv5LeP5XeIvoHFfj+Gu7v/uVCIpu0exfDfZ4u
w0k6um+7r6CEi3P3F4wYfCGAf85ajdhTJV/HiDZ33zA1w4ZbN8fUZfbi3YRLFYBD
iEPa/K6s5LSjzkSkCZrRCObx3/cPj/N1285ldO150eHA4ODfpcRHotl1gr2y91VL
6ZAvMd5W1bGPrdyQmuB0bkDiSwnZ4WPIxt7ONzBfUWQohMd3Q2IZwgAkujGqkWcl
6tnimRx7TZSclI8f6z2QxnwwqR0xxqp0/OI9kbyQiz7WpEuJD/+E9U9/BpEEatiF
YorQQIKTFTHCsGvjh/1pDQIDAQABo3sweTAJBgNVHRMEAjAAMCwGCWCGSAGG+EIB
DQQfFh1PcGVuU1NMIEdlbmVyYXRlZCBDZXJ0aWZpY2F0ZTAdBgNVHQ4EFgQUiXKG
s9eIZ7yVLRnEO+gtC0UkgscwHwYDVR0jBBgwFoAUwCyzxpYmSNISNNA3r4QWElv+
kdcwDQYJKoZIhvcNAQEFBQADggEBAKQ7WeQNqLMGWL7OKEZJ3Om2odEHQzEm6Tmx
Qr4BMPXQNK1fDcMyLuF7JrMEJ7tE4MR/BJmcNk7ocYbpZj0du2WOracU0u39essO
qWlZmpGODqfXesRsO+kbuohLPd2sBWYuQDyL0eFWHTvMQNV2tvkMBwezz4bDMJmu
xsrAoCdGXnkKUdobQ2GxyCjo4HvHDSbStecgW+cmG9UpqHv90sEmP+NtYbLaGTy8
XhwdwIChniHa7iIjUA6BeIKl4YiM4bl/h9v1+gKDsdrSL6RA3sb/Vc2PRtuMmiMQ
yKhV9+9UeoSF+Hrm5cM1rm0JuXPZmf/UZ6LacxlSxscyG4PmpcA=
-----END CERTIFICATE-----
