Certificate:
    Data:
        Version: 3 (0x2)
        Serial Number: 2 (0x2)
        Signature Algorithm: sha1WithRSAEncryption
        Issuer: C=CH, ST=Zurich, L=Zurich, O=iMovies, OU=CA, CN=CA
        Validity
            Not Before: Nov 21 13:53:20 2017 GMT
            Not After : Nov 21 13:53:20 2018 GMT
        Subject: C=CH, ST=Zurich, O=iMovies, OU=Administration, CN=192.168.50.32
        Subject Public Key Info:
            Public Key Algorithm: rsaEncryption
            RSA Public Key: (2048 bit)
                Modulus (2048 bit):
                    00:9e:89:c0:5e:fb:10:23:ae:e1:5a:16:e2:75:a7:
                    6f:f2:ce:3f:f4:ea:d4:53:f2:58:f6:08:4a:b6:f2:
                    f1:85:97:d0:46:e0:9d:fb:42:66:a3:a8:9e:83:23:
                    f0:f3:7d:8c:1c:8f:ac:09:59:eb:54:1a:e2:61:5a:
                    22:fb:c5:d6:b3:68:f0:3c:37:9a:40:84:03:d5:14:
                    5d:73:74:c5:7b:9d:e7:96:7d:ea:c2:33:c3:f2:3e:
                    a5:e7:04:37:0f:ea:bc:08:ad:97:09:bb:18:8d:4c:
                    82:19:a3:ad:09:4f:ce:3f:12:f6:ae:05:70:57:7f:
                    bd:07:0b:5b:08:e9:a2:66:93:da:bb:96:79:6f:15:
                    19:08:15:c3:f3:2e:86:5b:a8:50:56:f7:8b:4f:e2:
                    da:97:f0:a2:d5:6b:94:1e:9a:83:1b:5f:df:b6:31:
                    ba:4b:55:43:94:0c:dd:96:1a:17:ee:05:69:03:c1:
                    af:4a:81:51:15:a8:76:a3:f8:0a:40:71:61:19:39:
                    38:bb:da:f4:9b:c4:ca:a8:06:5d:40:5f:c1:6e:58:
                    c7:39:03:c5:d4:db:ef:e4:c1:c8:4c:e3:bb:aa:b6:
                    59:4e:5a:6c:f4:cd:63:be:b1:bb:f5:19:a7:ee:6b:
                    9c:e1:75:8e:f7:5c:25:79:9e:e5:63:9e:85:71:44:
                    ac:79
                Exponent: 65537 (0x10001)
        X509v3 extensions:
            X509v3 Basic Constraints: 
                CA:FALSE
            Netscape Comment: 
                OpenSSL Generated Certificate
            X509v3 Subject Key Identifier: 
                2E:FC:E9:EC:F1:8F:CE:9F:EF:1E:68:B1:68:29:FB:1C:3F:E9:9A:8E
            X509v3 Authority Key Identifier: 
                keyid:C0:2C:B3:C6:96:26:48:D2:12:34:D0:37:AF:84:16:12:5B:FE:91:D7

    Signature Algorithm: sha1WithRSAEncryption
        07:35:51:6f:e6:c7:b7:90:54:6c:2f:b7:98:f7:a2:39:f6:f2:
        28:49:63:50:db:13:75:40:a6:e1:9d:db:71:b0:fb:c2:6d:d0:
        8b:25:2e:cf:79:9f:3b:91:af:4e:03:26:07:04:bc:45:48:9c:
        7e:28:2a:82:6b:06:8c:c3:d4:bb:05:1b:96:dd:67:1e:75:ff:
        b7:0f:52:e6:51:99:85:b4:df:d7:06:c6:f4:9b:a4:f6:3d:85:
        fe:68:30:86:d1:6a:08:19:fe:06:60:75:a1:72:ce:cd:02:e3:
        0b:9d:34:4c:fe:ce:e7:5b:ff:63:e1:70:e6:31:96:b7:a8:b5:
        ea:1b:56:d3:98:22:97:99:72:0b:b9:2c:6b:f4:d7:89:d4:41:
        03:dd:76:f9:79:d6:0a:65:5b:b1:01:5f:5d:75:f0:49:72:d9:
        cf:f2:80:8d:2c:78:0e:38:fd:f5:0d:89:ba:4b:68:57:76:45:
        f1:ac:fa:bd:60:5e:bd:d0:9e:c1:73:55:dd:0f:cf:0a:3e:2d:
        a4:e8:90:f5:15:ba:a7:da:53:a4:8d:e8:25:61:6e:1f:04:3e:
        6e:c2:b6:32:19:fa:1f:b4:18:57:c1:73:e4:3a:84:cc:3c:72:
        3b:47:81:11:12:60:5b:63:2f:0d:78:ed:5e:f6:24:27:5e:0d:
        82:c7:07:dd
-----BEGIN CERTIFICATE-----
MIIDsjCCApqgAwIBAgIBAjANBgkqhkiG9w0BAQUFADBbMQswCQYDVQQGEwJDSDEP
MA0GA1UECAwGWnVyaWNoMQ8wDQYDVQQHDAZadXJpY2gxEDAOBgNVBAoMB2lNb3Zp
ZXMxCzAJBgNVBAsMAkNBMQswCQYDVQQDDAJDQTAeFw0xNzExMjExMzUzMjBaFw0x
ODExMjExMzUzMjBaMGExCzAJBgNVBAYTAkNIMQ8wDQYDVQQIDAZadXJpY2gxEDAO
BgNVBAoMB2lNb3ZpZXMxFzAVBgNVBAsMDkFkbWluaXN0cmF0aW9uMRYwFAYDVQQD
DA0xOTIuMTY4LjUwLjMyMIIBIjANBgkqhkiG9w0BAQEFAAOCAQ8AMIIBCgKCAQEA
nonAXvsQI67hWhbidadv8s4/9OrUU/JY9ghKtvLxhZfQRuCd+0Jmo6iegyPw832M
HI+sCVnrVBriYVoi+8XWs2jwPDeaQIQD1RRdc3TFe53nln3qwjPD8j6l5wQ3D+q8
CK2XCbsYjUyCGaOtCU/OPxL2rgVwV3+9BwtbCOmiZpPau5Z5bxUZCBXD8y6GW6hQ
VveLT+Lal/Ci1WuUHpqDG1/ftjG6S1VDlAzdlhoX7gVpA8GvSoFRFah2o/gKQHFh
GTk4u9r0m8TKqAZdQF/BbljHOQPF1Nvv5MHITOO7qrZZTlps9M1jvrG79Rmn7muc
4XWO91wleZ7lY56FcUSseQIDAQABo3sweTAJBgNVHRMEAjAAMCwGCWCGSAGG+EIB
DQQfFh1PcGVuU1NMIEdlbmVyYXRlZCBDZXJ0aWZpY2F0ZTAdBgNVHQ4EFgQULvzp
7PGPzp/vHmixaCn7HD/pmo4wHwYDVR0jBBgwFoAUwCyzxpYmSNISNNA3r4QWElv+
kdcwDQYJKoZIhvcNAQEFBQADggEBAAc1UW/mx7eQVGwvt5j3ojn28ihJY1DbE3VA
puGd23Gw+8Jt0IslLs95nzuRr04DJgcEvEVInH4oKoJrBozD1LsFG5bdZx51/7cP
UuZRmYW039cGxvSbpPY9hf5oMIbRaggZ/gZgdaFyzs0C4wudNEz+zudb/2PhcOYx
lreoteobVtOYIpeZcgu5LGv014nUQQPddvl51gplW7EBX1118Ely2c/ygI0seA44
/fUNibpLaFd2RfGs+r1gXr3QnsFzVd0Pzwo+LaTokPUVuqfaU6SN6CVhbh8EPm7C
tjIZ+h+0GFfBc+Q6hMw8cjtHgRESYFtjLw147V72JCdeDYLHB90=
-----END CERTIFICATE-----
