Certificate:
    Data:
        Version: 3 (0x2)
        Serial Number: 1 (0x1)
        Signature Algorithm: sha1WithRSAEncryption
        Issuer: C=CH, ST=Zurich, L=Zurich, O=iMovies, OU=CA, CN=CA
        Validity
            Not Before: Nov 15 08:55:09 2017 GMT
            Not After : Nov 15 08:55:09 2018 GMT
        Subject: C=CH, ST=Zurich, O=iMovies, OU=Users, CN=ohmy
        Subject Public Key Info:
            Public Key Algorithm: rsaEncryption
            RSA Public Key: (2048 bit)
                Modulus (2048 bit):
                    00:e3:b3:44:64:5b:f5:d9:d7:9a:26:ea:a6:1a:13:
                    e8:9e:33:ec:59:68:6a:2c:8e:28:89:ad:3d:63:d4:
                    02:34:c1:af:da:fd:e7:96:98:8e:ea:49:13:cb:5f:
                    fc:3b:67:01:cf:f5:23:26:07:05:56:c5:a0:9b:59:
                    41:48:d9:bb:79:27:57:6a:f2:0c:44:f4:35:a3:5b:
                    38:29:39:1e:ae:17:1e:32:fd:5b:5d:e7:a5:b3:d9:
                    1a:58:65:ff:1b:9f:81:27:96:65:89:f7:f6:9a:d8:
                    72:43:db:7f:f0:be:26:b6:a8:8f:96:90:29:fa:af:
                    19:fa:7b:5d:d6:75:99:30:3d:84:8e:9f:6c:dd:f0:
                    1e:81:2d:57:84:0c:3e:2e:94:ea:fd:b6:88:8d:05:
                    53:09:45:9a:4d:f7:e2:9d:cb:83:5c:18:3d:77:f1:
                    e6:25:1c:ba:31:2b:89:d8:42:a4:21:98:9e:9d:09:
                    13:d6:a2:47:24:a5:da:d3:5d:a4:08:81:3f:d4:68:
                    e3:b3:7c:00:b4:57:7d:74:74:0c:4b:d8:1e:9b:7f:
                    31:c8:9d:25:d4:bb:d0:ce:33:30:90:46:71:a5:d8:
                    91:ae:92:be:fc:6d:d5:f4:b5:33:af:10:18:82:34:
                    22:4e:d3:43:18:60:d6:08:6b:df:10:1b:84:60:05:
                    f3:23
                Exponent: 65537 (0x10001)
        X509v3 extensions:
            X509v3 Basic Constraints: 
                CA:FALSE
            Netscape Comment: 
                OpenSSL Generated Certificate
            X509v3 Subject Key Identifier: 
                2E:FB:4F:F7:63:72:F9:CA:24:CF:9A:63:41:EA:0A:D6:E6:7F:FA:51
            X509v3 Authority Key Identifier: 
                keyid:C0:2C:B3:C6:96:26:48:D2:12:34:D0:37:AF:84:16:12:5B:FE:91:D7

    Signature Algorithm: sha1WithRSAEncryption
        89:1b:9f:61:e3:48:bf:d9:b7:55:18:dc:16:6a:37:49:74:05:
        3b:cc:b8:c2:c1:b1:11:d5:1c:ae:a8:4d:fa:5a:7a:bc:f7:b6:
        fd:a7:a1:46:0b:ad:37:40:ea:f8:9a:c2:4f:12:5e:77:56:48:
        25:10:73:30:a8:66:3d:4d:69:fb:de:e1:28:c3:ea:4e:16:8b:
        86:32:b7:85:27:75:4e:cf:cd:75:0a:bf:f9:11:5a:c4:ab:2c:
        97:46:3d:46:60:73:38:6a:7e:93:eb:a1:e9:bd:36:b4:c5:b1:
        bc:10:e3:55:70:3c:1e:fa:31:25:41:57:19:82:43:ef:3c:cf:
        92:ab:4f:02:35:32:ba:b0:e7:2c:44:4e:b0:29:da:85:f5:f1:
        f3:01:ae:8c:c0:cb:64:30:6a:38:7d:ca:7c:17:51:83:10:8d:
        f3:1d:15:98:6e:90:92:e9:8a:4d:34:93:f9:ce:a0:37:15:fb:
        e8:7a:4e:88:76:ac:7f:56:39:02:0d:4a:be:bf:95:b5:fc:d9:
        42:c7:09:d0:7c:15:10:92:ec:62:9a:ac:c7:f5:4f:45:ab:a8:
        38:37:0b:49:fa:71:22:fb:b5:9d:c3:6c:91:fb:3d:bd:64:ac:
        1e:0a:2c:38:6c:1d:d6:33:f9:ce:83:c2:32:a8:b6:d6:aa:1f:
        d6:49:dd:c5
-----BEGIN CERTIFICATE-----
MIIDoDCCAoigAwIBAgIBATANBgkqhkiG9w0BAQUFADBbMQswCQYDVQQGEwJDSDEP
MA0GA1UECAwGWnVyaWNoMQ8wDQYDVQQHDAZadXJpY2gxEDAOBgNVBAoMB2lNb3Zp
ZXMxCzAJBgNVBAsMAkNBMQswCQYDVQQDDAJDQTAeFw0xNzExMTUwODU1MDlaFw0x
ODExMTUwODU1MDlaME8xCzAJBgNVBAYTAkNIMQ8wDQYDVQQIDAZadXJpY2gxEDAO
BgNVBAoMB2lNb3ZpZXMxDjAMBgNVBAsMBVVzZXJzMQ0wCwYDVQQDDARvaG15MIIB
IjANBgkqhkiG9w0BAQEFAAOCAQ8AMIIBCgKCAQEA47NEZFv12deaJuqmGhPonjPs
WWhqLI4oia09Y9QCNMGv2v3nlpiO6kkTy1/8O2cBz/UjJgcFVsWgm1lBSNm7eSdX
avIMRPQ1o1s4KTkerhceMv1bXeels9kaWGX/G5+BJ5Zliff2mthyQ9t/8L4mtqiP
lpAp+q8Z+ntd1nWZMD2Ejp9s3fAegS1XhAw+LpTq/baIjQVTCUWaTffincuDXBg9
d/HmJRy6MSuJ2EKkIZienQkT1qJHJKXa012kCIE/1Gjjs3wAtFd9dHQMS9gem38x
yJ0l1LvQzjMwkEZxpdiRrpK+/G3V9LUzrxAYgjQiTtNDGGDWCGvfEBuEYAXzIwID
AQABo3sweTAJBgNVHRMEAjAAMCwGCWCGSAGG+EIBDQQfFh1PcGVuU1NMIEdlbmVy
YXRlZCBDZXJ0aWZpY2F0ZTAdBgNVHQ4EFgQULvtP92Ny+cokz5pjQeoK1uZ/+lEw
HwYDVR0jBBgwFoAUwCyzxpYmSNISNNA3r4QWElv+kdcwDQYJKoZIhvcNAQEFBQAD
ggEBAIkbn2HjSL/Zt1UY3BZqN0l0BTvMuMLBsRHVHK6oTfpaerz3tv2noUYLrTdA
6viawk8SXndWSCUQczCoZj1Nafve4SjD6k4Wi4Yyt4UndU7PzXUKv/kRWsSrLJdG
PUZgczhqfpProem9NrTFsbwQ41VwPB76MSVBVxmCQ+88z5KrTwI1Mrqw5yxETrAp
2oX18fMBrozAy2Qwajh9ynwXUYMQjfMdFZhukJLpik00k/nOoDcV++h6Toh2rH9W
OQINSr6/lbX82ULHCdB8FRCS7GKarMf1T0WrqDg3C0n6cSL7tZ3DbJH7Pb1krB4K
LDhsHdYz+c6DwjKottaqH9ZJ3cU=
-----END CERTIFICATE-----
