Certificate:
    Data:
        Version: 3 (0x2)
        Serial Number: 1 (0x1)
        Signature Algorithm: sha1WithRSAEncryption
        Issuer: C=CH, ST=Zurich, L=Zurich, O=iMovies, OU=CA, CN=CA
        Validity
            Not Before: Nov 15 16:43:58 2017 GMT
            Not After : Nov 15 16:43:58 2018 GMT
        Subject: C=CH, ST=Zurich, O=iMovies, OU=Infrastructure, CN=web_server
        Subject Public Key Info:
            Public Key Algorithm: rsaEncryption
            RSA Public Key: (2048 bit)
                Modulus (2048 bit):
                    00:ca:67:67:db:02:94:bc:c0:23:a1:e2:25:e9:69:
                    a9:2e:45:0e:03:34:89:4b:d2:c4:78:65:bb:97:26:
                    2a:72:4c:36:7e:8a:f2:95:d7:a4:f3:a9:3c:85:53:
                    cf:3e:f3:b0:0c:de:4b:bf:66:74:0e:f4:2f:d6:21:
                    8e:ef:d5:ae:a3:f1:94:89:81:b9:38:a9:af:6e:a4:
                    2f:48:18:6d:28:da:0c:84:fd:43:48:a5:8e:18:8c:
                    7a:a5:58:2e:4b:61:53:b6:9b:a2:8a:43:fb:ff:b5:
                    17:30:95:1e:15:94:fc:12:37:1c:f6:91:99:1d:74:
                    cf:d1:23:8d:6d:12:90:1f:42:e7:4d:97:ab:1f:b0:
                    f9:33:e1:74:c3:41:c4:e0:63:0a:a3:43:25:bc:a6:
                    98:58:9b:d4:e5:3c:f1:76:19:12:ee:9a:5d:e4:66:
                    c8:85:e1:d8:be:63:46:db:aa:2d:69:7d:9c:bb:d0:
                    fd:b8:05:67:72:e6:51:59:82:4a:cf:8c:d5:e5:86:
                    42:b7:26:b6:a6:29:67:4c:dc:ae:5a:c0:b0:8a:54:
                    8a:f9:c2:d1:2b:6b:4f:bb:80:57:31:90:3d:37:7b:
                    22:18:1b:0a:e1:6b:15:f5:81:d3:ac:10:a9:c1:c8:
                    76:77:46:21:5b:6b:5f:14:d4:32:9e:78:da:51:4b:
                    cd:35
                Exponent: 65537 (0x10001)
        X509v3 extensions:
            X509v3 Basic Constraints: 
                CA:FALSE
            Netscape Comment: 
                OpenSSL Generated Certificate
            X509v3 Subject Key Identifier: 
                8D:8E:B8:70:73:60:F7:AB:E8:45:2E:C5:4A:A0:2B:A4:81:36:64:3E
            X509v3 Authority Key Identifier: 
                keyid:C0:2C:B3:C6:96:26:48:D2:12:34:D0:37:AF:84:16:12:5B:FE:91:D7

    Signature Algorithm: sha1WithRSAEncryption
        a7:19:e4:aa:fb:2b:1d:47:2b:69:31:28:c6:4b:49:ee:33:0e:
        1f:8b:1f:3c:0e:76:f4:48:b9:74:d3:d1:1c:65:0b:e2:63:80:
        af:44:0d:5f:50:89:bb:86:99:56:12:4b:90:dd:5e:71:ba:ca:
        66:51:11:41:a9:ec:ee:59:23:ae:10:de:36:79:78:53:27:5e:
        c4:7a:ec:bb:ee:4f:6b:5d:a0:fe:cf:b6:d6:aa:58:93:f7:52:
        b6:1c:00:1d:32:2a:2b:af:18:a7:49:b8:ab:91:7c:fc:43:5a:
        75:15:ea:18:64:2a:66:cd:88:74:a5:51:55:a2:3c:56:f9:d6:
        9f:72:aa:21:f0:c7:5b:f5:30:18:dd:12:ce:05:d0:71:6c:e6:
        f2:4d:b1:3b:cd:bc:17:e9:f3:61:02:9f:6c:0e:43:17:7c:a4:
        1b:72:66:de:b0:bf:f1:dc:09:af:a4:a3:fa:59:2a:89:61:b7:
        05:53:9f:57:63:7f:2c:40:50:2c:35:81:1c:41:bb:ef:43:39:
        a1:66:b8:1a:a9:62:e7:e0:60:fb:d0:77:96:96:42:16:10:1d:
        69:8b:a5:22:48:49:9f:2c:3c:0e:44:fa:9d:ef:98:55:1c:6e:
        8c:52:df:b9:68:44:d2:8d:36:16:a0:a0:d5:12:a6:85:5d:1f:
        b9:22:54:82
-----BEGIN CERTIFICATE-----
MIIDrzCCApegAwIBAgIBATANBgkqhkiG9w0BAQUFADBbMQswCQYDVQQGEwJDSDEP
MA0GA1UECAwGWnVyaWNoMQ8wDQYDVQQHDAZadXJpY2gxEDAOBgNVBAoMB2lNb3Zp
ZXMxCzAJBgNVBAsMAkNBMQswCQYDVQQDDAJDQTAeFw0xNzExMTUxNjQzNThaFw0x
ODExMTUxNjQzNThaMF4xCzAJBgNVBAYTAkNIMQ8wDQYDVQQIDAZadXJpY2gxEDAO
BgNVBAoMB2lNb3ZpZXMxFzAVBgNVBAsMDkluZnJhc3RydWN0dXJlMRMwEQYDVQQD
DAp3ZWJfc2VydmVyMIIBIjANBgkqhkiG9w0BAQEFAAOCAQ8AMIIBCgKCAQEAymdn
2wKUvMAjoeIl6WmpLkUOAzSJS9LEeGW7lyYqckw2foryldek86k8hVPPPvOwDN5L
v2Z0DvQv1iGO79Wuo/GUiYG5OKmvbqQvSBhtKNoMhP1DSKWOGIx6pVguS2FTtpui
ikP7/7UXMJUeFZT8Ejcc9pGZHXTP0SONbRKQH0LnTZerH7D5M+F0w0HE4GMKo0Ml
vKaYWJvU5TzxdhkS7ppd5GbIheHYvmNG26otaX2cu9D9uAVncuZRWYJKz4zV5YZC
tya2pilnTNyuWsCwilSK+cLRK2tPu4BXMZA9N3siGBsK4WsV9YHTrBCpwch2d0Yh
W2tfFNQynnjaUUvNNQIDAQABo3sweTAJBgNVHRMEAjAAMCwGCWCGSAGG+EIBDQQf
Fh1PcGVuU1NMIEdlbmVyYXRlZCBDZXJ0aWZpY2F0ZTAdBgNVHQ4EFgQUjY64cHNg
96voRS7FSqArpIE2ZD4wHwYDVR0jBBgwFoAUwCyzxpYmSNISNNA3r4QWElv+kdcw
DQYJKoZIhvcNAQEFBQADggEBAKcZ5Kr7Kx1HK2kxKMZLSe4zDh+LHzwOdvRIuXTT
0RxlC+JjgK9EDV9QibuGmVYSS5DdXnG6ymZREUGp7O5ZI64Q3jZ5eFMnXsR67Lvu
T2tdoP7PttaqWJP3UrYcAB0yKiuvGKdJuKuRfPxDWnUV6hhkKmbNiHSlUVWiPFb5
1p9yqiHwx1v1MBjdEs4F0HFs5vJNsTvNvBfp82ECn2wOQxd8pBtyZt6wv/HcCa+k
o/pZKolhtwVTn1djfyxAUCw1gRxBu+9DOaFmuBqpYufgYPvQd5aWQhYQHWmLpSJI
SZ8sPA5E+p3vmFUcboxS37loRNKNNhagoNUSpoVdH7kiVII=
-----END CERTIFICATE-----
