Certificate:
    Data:
        Version: 3 (0x2)
        Serial Number: 1 (0x1)
        Signature Algorithm: sha1WithRSAEncryption
        Issuer: C=CH, ST=Zurich, L=Zurich, O=iMovies, OU=IT, CN=ca/emailAddress=a@b.ch
        Validity
            Not Before: Nov 10 09:38:43 2017 GMT
            Not After : Nov 10 09:38:43 2018 GMT
        Subject: C=CH, ST=Zurich, L=Zurich, O=iMovies, OU=IT Department, CN=ca
        Subject Public Key Info:
            Public Key Algorithm: rsaEncryption
            RSA Public Key: (2048 bit)
                Modulus (2048 bit):
                    00:ea:ba:26:0b:40:71:2e:8f:f3:1a:b0:d3:f5:25:
                    9f:32:93:24:f8:89:d4:60:5a:0d:26:ed:3b:9f:2f:
                    d1:ed:6f:af:ef:bb:cb:24:39:f2:f0:f4:e8:fa:ff:
                    1f:29:52:8e:b3:2b:30:b6:6d:65:26:55:59:ea:bc:
                    6e:63:5d:54:f7:b2:1a:ad:3c:80:c9:1c:03:ab:de:
                    3e:ad:46:5e:99:c7:0e:6a:be:88:7d:29:9b:bc:09:
                    2a:2e:2e:84:81:86:8f:39:d5:d8:46:46:5a:87:92:
                    3f:b4:9f:b0:2a:9b:cb:ca:3f:f6:37:c5:da:02:21:
                    41:74:7d:ae:27:a3:47:e4:54:e3:78:ec:52:82:d9:
                    77:fa:d4:88:68:62:e5:06:4a:0a:4c:1b:bf:31:4e:
                    64:6b:a9:8c:e6:f0:1b:25:a1:71:d2:d9:76:6b:e5:
                    f3:4f:2c:6e:13:4d:78:f2:ca:37:d0:16:c1:4c:e3:
                    86:53:ef:c2:66:e8:6a:77:8d:09:8c:ed:d7:b0:1f:
                    a6:57:a4:97:20:37:f5:c6:ea:14:30:14:04:8a:47:
                    00:58:09:8b:d4:a3:43:ce:c0:1f:fe:cc:f5:b0:64:
                    f3:fc:73:1b:6e:34:62:67:b4:9c:b2:cb:24:ee:0d:
                    e4:3e:7a:ba:65:b1:a6:25:0d:b6:81:37:7b:d2:45:
                    d7:15
                Exponent: 65537 (0x10001)
        X509v3 extensions:
            X509v3 Basic Constraints: 
                CA:FALSE
            Netscape Comment: 
                OpenSSL Generated Certificate
            X509v3 Subject Key Identifier: 
                CE:48:D4:83:27:5C:97:61:BC:E1:D3:F9:2A:08:62:44:71:7D:8D:10
            X509v3 Authority Key Identifier: 
                keyid:CA:ED:76:1A:16:23:57:DB:CF:B8:68:D4:BB:00:59:06:39:EF:9C:E7

    Signature Algorithm: sha1WithRSAEncryption
        2c:19:46:9a:43:00:90:1c:a2:fb:fc:d9:fe:71:49:7e:2d:37:
        3d:55:e1:58:9b:1b:18:2d:3b:74:3a:33:1e:ca:a7:e4:b6:15:
        39:b9:f0:88:b0:c6:8d:9e:94:db:36:b9:0d:fc:f7:45:d0:86:
        24:51:ae:be:c8:2c:06:ae:8f:6a:ce:63:ca:94:fd:87:44:6e:
        24:b7:a1:8b:da:e5:a1:7e:04:7e:e1:5a:42:9a:54:29:68:3b:
        fd:23:8b:49:79:38:26:b4:a1:01:6c:73:c7:c2:12:fb:d2:48:
        6a:1e:7c:a3:fd:74:6c:58:2e:75:c4:ba:c8:a0:99:f7:dc:c7:
        4d:b5
-----BEGIN CERTIFICATE-----
MIIDTTCCAragAwIBAgIBATANBgkqhkiG9w0BAQUFADByMQswCQYDVQQGEwJDSDEP
MA0GA1UECBMGWnVyaWNoMQ8wDQYDVQQHEwZadXJpY2gxEDAOBgNVBAoTB2lNb3Zp
ZXMxCzAJBgNVBAsTAklUMQswCQYDVQQDEwJjYTEVMBMGCSqGSIb3DQEJARYGYUBi
LmNoMB4XDTE3MTExMDA5Mzg0M1oXDTE4MTExMDA5Mzg0M1owZjELMAkGA1UEBhMC
Q0gxDzANBgNVBAgMBlp1cmljaDEPMA0GA1UEBwwGWnVyaWNoMRAwDgYDVQQKDAdp
TW92aWVzMRYwFAYDVQQLDA1JVCBEZXBhcnRtZW50MQswCQYDVQQDDAJjYTCCASIw
DQYJKoZIhvcNAQEBBQADggEPADCCAQoCggEBAOq6JgtAcS6P8xqw0/UlnzKTJPiJ
1GBaDSbtO58v0e1vr++7yyQ58vD06Pr/HylSjrMrMLZtZSZVWeq8bmNdVPeyGq08
gMkcA6vePq1GXpnHDmq+iH0pm7wJKi4uhIGGjznV2EZGWoeSP7SfsCqby8o/9jfF
2gIhQXR9riejR+RU43jsUoLZd/rUiGhi5QZKCkwbvzFOZGupjObwGyWhcdLZdmvl
808sbhNNePLKN9AWwUzjhlPvwmboaneNCYzt17AfpleklyA39cbqFDAUBIpHAFgJ
i9SjQ87AH/7M9bBk8/xzG240Yme0nLLLJO4N5D56umWxpiUNtoE3e9JF1xUCAwEA
AaN7MHkwCQYDVR0TBAIwADAsBglghkgBhvhCAQ0EHxYdT3BlblNTTCBHZW5lcmF0
ZWQgQ2VydGlmaWNhdGUwHQYDVR0OBBYEFM5I1IMnXJdhvOHT+SoIYkRxfY0QMB8G
A1UdIwQYMBaAFMrtdhoWI1fbz7ho1LsAWQY575znMA0GCSqGSIb3DQEBBQUAA4GB
ACwZRppDAJAcovv82f5xSX4tNz1V4VibGxgtO3Q6Mx7Kp+S2FTm58Iiwxo2elNs2
uQ3890XQhiRRrr7ILAauj2rOY8qU/YdEbiS3oYva5aF+BH7hWkKaVCloO/0ji0l5
OCa0oQFsc8fCEvvSSGoefKP9dGxYLnXEusigmffcx021
-----END CERTIFICATE-----
