Certificate:
    Data:
        Version: 3 (0x2)
        Serial Number: 1 (0x1)
    Signature Algorithm: sha1WithRSAEncryption
        Issuer: C=CH, ST=Zurich, L=Zurich, O=iMovies, OU=CA, CN=CA
        Validity
            Not Before: Nov 14 07:48:12 2017 GMT
            Not After : Nov 14 07:48:12 2018 GMT
        Subject: C=CH, ST=Zurich, O=iMovies, OU=Users, CN=a3
        Subject Public Key Info:
            Public Key Algorithm: rsaEncryption
                Public-Key: (2048 bit)
                Modulus:
                    00:bd:d5:ea:9e:f7:9e:bc:94:03:ad:cb:20:e1:ec:
                    67:2d:c6:8a:62:fc:91:38:4b:6f:18:4f:18:25:dc:
                    ce:2d:32:67:7a:28:25:8f:a0:d1:84:c0:15:85:74:
                    b5:15:9a:48:3b:2b:d7:43:2f:d2:e1:3a:f8:ae:c9:
                    05:37:93:83:38:ad:01:4f:9f:6f:e7:b6:20:74:c6:
                    4c:bc:79:20:56:eb:21:44:91:f6:fb:ed:8c:5a:16:
                    e3:44:0e:52:23:c0:80:65:2f:8f:7b:f0:4b:42:9f:
                    2c:26:2a:38:58:bd:05:d7:94:15:82:77:6a:1e:d1:
                    ef:22:91:4d:42:82:72:fa:d4:68:8a:1d:52:4d:08:
                    87:44:ba:ca:9b:43:a4:c3:69:d1:0c:41:75:5b:72:
                    39:ff:f2:c1:24:da:4d:4e:8d:ec:ce:c6:0c:ee:da:
                    03:66:5e:bd:d0:fc:8b:37:e3:63:ff:b1:b1:5b:82:
                    b2:19:96:41:96:12:ea:2c:d8:0b:8c:84:93:91:c6:
                    54:54:f8:d5:52:b3:74:65:97:02:c3:4d:2c:0e:36:
                    a9:b6:63:42:0c:6d:33:bb:4b:68:c2:aa:2d:82:1a:
                    7e:2e:23:66:9f:38:42:b1:ce:5a:3b:1c:28:ea:6d:
                    70:1a:9a:4a:82:48:ff:0b:ee:20:f5:87:e8:5f:c5:
                    d4:2f
                Exponent: 65537 (0x10001)
        X509v3 extensions:
            X509v3 Basic Constraints: 
                CA:FALSE
            Netscape Comment: 
                OpenSSL Generated Certificate
            X509v3 Subject Key Identifier: 
                3A:97:4E:7B:FC:01:C3:67:1A:56:A1:85:D1:D1:ED:D2:93:50:48:D8
            X509v3 Authority Key Identifier: 
                keyid:B2:6F:60:D1:2C:75:A1:EB:42:C9:F5:EC:EF:30:01:50:16:2E:5B:D1

    Signature Algorithm: sha1WithRSAEncryption
         83:25:4a:6f:e5:cb:80:ef:8e:66:63:52:a9:e8:e2:14:d2:23:
         2c:4c:74:c9:69:72:87:70:65:2a:ba:ab:8e:c1:d0:75:15:83:
         ba:36:79:29:f5:6b:4d:b3:77:14:60:f5:d9:a7:27:f1:5c:a9:
         a3:50:2d:90:0f:0f:aa:ad:91:5e:fc:03:12:66:90:b9:14:c2:
         11:6c:f4:05:34:10:52:c1:f9:6b:42:f8:6c:04:36:8b:61:63:
         15:71:1a:3f:20:47:5c:a4:1e:2c:f4:ac:99:e8:22:e9:e5:3a:
         39:cb:27:0b:4d:da:6f:33:82:ff:d4:99:a5:da:9a:48:4f:bb:
         48:c0
-----BEGIN CERTIFICATE-----
MIIDHTCCAoagAwIBAgIBATANBgkqhkiG9w0BAQUFADBbMQswCQYDVQQGEwJDSDEP
MA0GA1UECAwGWnVyaWNoMQ8wDQYDVQQHDAZadXJpY2gxEDAOBgNVBAoMB2lNb3Zp
ZXMxCzAJBgNVBAsMAkNBMQswCQYDVQQDDAJDQTAeFw0xNzExMTQwNzQ4MTJaFw0x
ODExMTQwNzQ4MTJaME0xCzAJBgNVBAYTAkNIMQ8wDQYDVQQIDAZadXJpY2gxEDAO
BgNVBAoMB2lNb3ZpZXMxDjAMBgNVBAsMBVVzZXJzMQswCQYDVQQDDAJhMzCCASIw
DQYJKoZIhvcNAQEBBQADggEPADCCAQoCggEBAL3V6p73nryUA63LIOHsZy3GimL8
kThLbxhPGCXczi0yZ3ooJY+g0YTAFYV0tRWaSDsr10Mv0uE6+K7JBTeTgzitAU+f
b+e2IHTGTLx5IFbrIUSR9vvtjFoW40QOUiPAgGUvj3vwS0KfLCYqOFi9BdeUFYJ3
ah7R7yKRTUKCcvrUaIodUk0Ih0S6yptDpMNp0QxBdVtyOf/ywSTaTU6N7M7GDO7a
A2ZevdD8izfjY/+xsVuCshmWQZYS6izYC4yEk5HGVFT41VKzdGWXAsNNLA42qbZj
QgxtM7tLaMKqLYIafi4jZp84QrHOWjscKOptcBqaSoJI/wvuIPWH6F/F1C8CAwEA
AaN7MHkwCQYDVR0TBAIwADAsBglghkgBhvhCAQ0EHxYdT3BlblNTTCBHZW5lcmF0
ZWQgQ2VydGlmaWNhdGUwHQYDVR0OBBYEFDqXTnv8AcNnGlahhdHR7dKTUEjYMB8G
A1UdIwQYMBaAFLJvYNEsdaHrQsn17O8wAVAWLlvRMA0GCSqGSIb3DQEBBQUAA4GB
AIMlSm/ly4DvjmZjUqno4hTSIyxMdMlpcodwZSq6q47B0HUVg7o2eSn1a02zdxRg
9dmnJ/FcqaNQLZAPD6qtkV78AxJmkLkUwhFs9AU0EFLB+WtC+GwENothYxVxGj8g
R1ykHiz0rJnoIunlOjnLJwtN2m8zgv/UmaXamkhPu0jA
-----END CERTIFICATE-----
