Certificate:
    Data:
        Version: 3 (0x2)
        Serial Number: 4 (0x4)
        Signature Algorithm: sha1WithRSAEncryption
        Issuer: C=CH, ST=Zurich, L=Zurich, O=iMovies, OU=CA, CN=CA
        Validity
            Not Before: Nov 21 13:53:57 2017 GMT
            Not After : Nov 21 13:53:57 2018 GMT
        Subject: C=CH, ST=Zurich, O=iMovies, OU=Administration, CN=192.168.51.14
        Subject Public Key Info:
            Public Key Algorithm: rsaEncryption
            RSA Public Key: (2048 bit)
                Modulus (2048 bit):
                    00:c9:4a:20:a0:e1:c2:be:fc:a8:b8:8f:04:53:37:
                    a7:bb:f5:04:b6:75:de:6c:17:c2:78:4e:94:33:e8:
                    51:ef:30:d4:f4:1f:c4:c2:89:a2:8f:9c:99:cd:ee:
                    be:d5:8c:1d:b9:df:52:a7:b9:84:d3:69:af:bd:43:
                    a3:4a:18:db:51:b9:a9:c8:45:f6:2b:50:24:88:d7:
                    50:ad:30:a7:55:8c:d4:76:53:f5:7a:fc:c3:1f:9d:
                    ec:1d:28:fb:2d:c2:42:5e:dd:e9:77:d5:9e:d7:e8:
                    a1:3c:d4:13:70:88:36:1f:89:c6:74:88:44:39:a4:
                    81:b4:db:2f:a8:31:dd:2e:20:bb:6f:d4:c4:e6:96:
                    2b:23:d5:eb:79:a6:75:a7:e3:9d:9c:90:03:cd:ae:
                    82:31:c4:c6:26:a7:63:6a:9e:86:cf:e5:31:20:7b:
                    9a:f8:1a:b8:20:6a:01:e4:eb:3c:09:7c:10:e7:48:
                    e7:74:6b:04:b3:bc:50:98:59:8a:dc:e7:69:8b:c4:
                    86:25:de:7a:6c:c1:24:90:a4:a0:e6:cf:42:4e:ed:
                    0b:8c:0d:ad:81:f5:af:f1:64:8f:cf:81:e0:38:6c:
                    6f:07:83:fc:ce:71:1e:a4:be:2a:e2:7a:4a:4b:cf:
                    ab:00:6f:35:95:8f:8c:b8:48:db:53:26:86:bb:4b:
                    f8:61
                Exponent: 65537 (0x10001)
        X509v3 extensions:
            X509v3 Basic Constraints: 
                CA:FALSE
            Netscape Comment: 
                OpenSSL Generated Certificate
            X509v3 Subject Key Identifier: 
                B1:52:43:5F:CC:AC:C5:91:16:CE:FA:99:9D:CA:B0:15:1D:04:89:69
            X509v3 Authority Key Identifier: 
                keyid:C0:2C:B3:C6:96:26:48:D2:12:34:D0:37:AF:84:16:12:5B:FE:91:D7

    Signature Algorithm: sha1WithRSAEncryption
        b7:d0:f1:0d:59:d6:f7:94:60:a1:07:85:38:61:0b:4e:7c:74:
        2e:21:c9:d7:b8:8b:97:8c:a5:69:fc:37:6d:f5:3a:08:3a:19:
        17:cb:9f:ef:e4:f5:e1:0e:cb:6a:59:20:0d:2b:a6:2e:13:8b:
        0c:e4:fb:b0:87:13:e1:40:d8:7a:28:60:f0:81:c4:dd:3a:ff:
        12:4f:1e:85:74:b7:06:f2:ab:fb:15:9f:7e:09:2e:07:26:16:
        9b:d3:91:37:9b:82:36:0e:bf:f0:8a:c3:16:3b:d6:9b:38:1e:
        31:d4:4b:0a:d1:55:42:a1:ad:63:d9:df:58:58:5b:9d:0d:3a:
        9d:2b:64:de:02:09:be:59:60:74:a9:92:4b:02:25:b4:ad:6b:
        09:bd:a4:fd:ab:08:86:8e:16:05:28:5f:e2:fe:22:bd:cd:1a:
        b1:70:ad:a1:76:87:ec:64:dd:07:96:40:73:40:d2:a1:b8:d4:
        1a:71:53:b8:cf:9b:de:64:89:50:17:85:c7:10:67:3a:4a:7c:
        a4:60:6b:63:d0:ae:a3:67:bb:cf:a2:45:24:63:f8:04:ee:df:
        3b:13:db:3b:ba:a1:b7:4b:48:04:00:32:8b:06:a3:3e:60:4a:
        ba:c1:ed:c2:ec:03:79:01:95:1e:27:d2:ef:31:74:0c:ed:40:
        3e:2f:af:4b
-----BEGIN CERTIFICATE-----
MIIDsjCCApqgAwIBAgIBBDANBgkqhkiG9w0BAQUFADBbMQswCQYDVQQGEwJDSDEP
MA0GA1UECAwGWnVyaWNoMQ8wDQYDVQQHDAZadXJpY2gxEDAOBgNVBAoMB2lNb3Zp
ZXMxCzAJBgNVBAsMAkNBMQswCQYDVQQDDAJDQTAeFw0xNzExMjExMzUzNTdaFw0x
ODExMjExMzUzNTdaMGExCzAJBgNVBAYTAkNIMQ8wDQYDVQQIDAZadXJpY2gxEDAO
BgNVBAoMB2lNb3ZpZXMxFzAVBgNVBAsMDkFkbWluaXN0cmF0aW9uMRYwFAYDVQQD
DA0xOTIuMTY4LjUxLjE0MIIBIjANBgkqhkiG9w0BAQEFAAOCAQ8AMIIBCgKCAQEA
yUogoOHCvvyouI8EUzenu/UEtnXebBfCeE6UM+hR7zDU9B/Ewomij5yZze6+1Ywd
ud9Sp7mE02mvvUOjShjbUbmpyEX2K1AkiNdQrTCnVYzUdlP1evzDH53sHSj7LcJC
Xt3pd9We1+ihPNQTcIg2H4nGdIhEOaSBtNsvqDHdLiC7b9TE5pYrI9XreaZ1p+Od
nJADza6CMcTGJqdjap6Gz+UxIHua+Bq4IGoB5Os8CXwQ50jndGsEs7xQmFmK3Odp
i8SGJd56bMEkkKSg5s9CTu0LjA2tgfWv8WSPz4HgOGxvB4P8znEepL4q4npKS8+r
AG81lY+MuEjbUyaGu0v4YQIDAQABo3sweTAJBgNVHRMEAjAAMCwGCWCGSAGG+EIB
DQQfFh1PcGVuU1NMIEdlbmVyYXRlZCBDZXJ0aWZpY2F0ZTAdBgNVHQ4EFgQUsVJD
X8ysxZEWzvqZncqwFR0EiWkwHwYDVR0jBBgwFoAUwCyzxpYmSNISNNA3r4QWElv+
kdcwDQYJKoZIhvcNAQEFBQADggEBALfQ8Q1Z1veUYKEHhThhC058dC4hyde4i5eM
pWn8N231Ogg6GRfLn+/k9eEOy2pZIA0rpi4Tiwzk+7CHE+FA2HooYPCBxN06/xJP
HoV0twbyq/sVn34JLgcmFpvTkTebgjYOv/CKwxY71ps4HjHUSwrRVUKhrWPZ31hY
W50NOp0rZN4CCb5ZYHSpkksCJbStawm9pP2rCIaOFgUoX+L+Ir3NGrFwraF2h+xk
3QeWQHNA0qG41BpxU7jPm95kiVAXhccQZzpKfKRga2PQrqNnu8+iRSRj+ATu3zsT
2zu6obdLSAQAMosGoz5gSrrB7cLsA3kBlR4n0u8xdAztQD4vr0s=
-----END CERTIFICATE-----
