Certificate:
    Data:
        Version: 3 (0x2)
        Serial Number: 5 (0x5)
        Signature Algorithm: sha1WithRSAEncryption
        Issuer: C=CH, ST=Zurich, L=Zurich, O=iMovies, OU=CA, CN=CA
        Validity
            Not Before: Nov 15 14:10:09 2017 GMT
            Not After : Nov 15 14:10:09 2018 GMT
        Subject: C=CH, ST=Zurich, O=iMovies, OU=Infrastructure, CN=web_server
        Subject Public Key Info:
            Public Key Algorithm: rsaEncryption
            RSA Public Key: (2048 bit)
                Modulus (2048 bit):
                    00:ca:66:9a:c2:e1:5f:ed:00:1f:82:2a:15:1d:bc:
                    d1:68:d4:07:1d:6a:34:92:64:7b:1c:2d:d3:09:40:
                    a4:32:37:76:97:59:f2:d1:25:d0:be:78:e7:40:3f:
                    10:32:bf:1d:7f:ad:11:9f:ba:dc:c2:83:53:8a:24:
                    cc:79:47:ea:3e:a0:53:92:75:6d:a0:e8:41:79:97:
                    20:61:f5:bf:59:9e:a1:0d:19:ca:9c:61:18:68:e4:
                    84:cc:14:c4:9e:48:58:25:51:cc:25:27:d9:e3:e5:
                    6f:93:6c:6b:9b:e5:29:d4:c5:04:44:08:27:4f:f6:
                    18:0c:83:c1:9b:cf:c8:ff:5b:c4:40:96:ca:c5:1f:
                    dc:f9:79:ca:34:09:65:2f:d0:87:c9:6e:ba:9d:78:
                    a4:4d:50:fb:ec:13:00:fe:69:fb:1b:ac:3c:1e:66:
                    4a:9c:a7:4c:05:5b:8f:e7:0e:3e:51:02:29:5c:6c:
                    aa:84:c6:bf:8a:18:07:48:6e:d8:2a:d0:d9:fe:d3:
                    4b:00:eb:5a:19:b5:05:cc:58:92:0f:b9:4b:b2:68:
                    bc:fe:0d:87:58:3c:fc:f8:01:dc:33:c7:9c:42:2b:
                    2c:34:8f:8d:a5:41:7c:27:5a:54:35:4d:7b:e0:09:
                    4c:82:04:4e:c9:93:65:ec:21:92:41:8f:1a:93:c6:
                    16:27
                Exponent: 65537 (0x10001)
        X509v3 extensions:
            X509v3 Basic Constraints: 
                CA:FALSE
            Netscape Comment: 
                OpenSSL Generated Certificate
            X509v3 Subject Key Identifier: 
                F9:B1:5E:13:9C:51:33:BD:90:EA:57:8C:94:23:C7:83:66:7B:37:D9
            X509v3 Authority Key Identifier: 
                keyid:C0:2C:B3:C6:96:26:48:D2:12:34:D0:37:AF:84:16:12:5B:FE:91:D7

    Signature Algorithm: sha1WithRSAEncryption
        07:eb:9e:26:dc:63:5e:19:a2:52:5d:33:d7:e2:a9:c3:0e:5d:
        4f:6c:2a:d9:0a:1b:73:39:26:d6:df:e1:fe:11:f7:e3:03:f7:
        31:ce:d7:35:cc:f5:5c:42:25:47:c4:b6:02:66:b9:aa:00:10:
        f2:91:55:40:4a:ed:b1:e5:7f:14:96:25:d6:af:10:fc:2f:de:
        66:37:66:bf:78:2c:eb:3c:51:63:d2:41:b4:2b:19:37:64:2a:
        4d:87:ea:e1:85:07:e5:2b:89:d3:4d:39:55:39:5f:f7:38:46:
        18:9e:47:f6:05:9d:23:67:2c:ad:e9:08:9d:20:c5:85:87:4d:
        83:cf:ac:74:e0:c7:0d:90:41:56:07:23:c8:6b:6e:c0:7f:45:
        b2:20:1b:08:b5:3b:af:f0:c3:27:de:94:3d:39:17:bb:59:15:
        4a:7e:01:25:2b:f8:b5:a1:10:91:ed:92:a9:df:53:4b:d1:76:
        a3:33:7a:e7:4f:40:bc:be:9e:14:1f:97:f8:d2:d9:5f:af:ca:
        08:b0:6d:bf:fc:ee:18:b9:8e:4f:52:14:64:35:19:cd:d8:42:
        ea:6e:1b:d8:53:f3:c3:b4:43:32:35:aa:7c:28:57:92:20:8f:
        e7:ea:08:f7:01:9f:55:3e:7f:30:ea:2d:2b:a9:e7:df:c9:fc:
        94:7e:b6:b5
-----BEGIN CERTIFICATE-----
MIIDrzCCApegAwIBAgIBBTANBgkqhkiG9w0BAQUFADBbMQswCQYDVQQGEwJDSDEP
MA0GA1UECAwGWnVyaWNoMQ8wDQYDVQQHDAZadXJpY2gxEDAOBgNVBAoMB2lNb3Zp
ZXMxCzAJBgNVBAsMAkNBMQswCQYDVQQDDAJDQTAeFw0xNzExMTUxNDEwMDlaFw0x
ODExMTUxNDEwMDlaMF4xCzAJBgNVBAYTAkNIMQ8wDQYDVQQIDAZadXJpY2gxEDAO
BgNVBAoMB2lNb3ZpZXMxFzAVBgNVBAsMDkluZnJhc3RydWN0dXJlMRMwEQYDVQQD
DAp3ZWJfc2VydmVyMIIBIjANBgkqhkiG9w0BAQEFAAOCAQ8AMIIBCgKCAQEAymaa
wuFf7QAfgioVHbzRaNQHHWo0kmR7HC3TCUCkMjd2l1ny0SXQvnjnQD8QMr8df60R
n7rcwoNTiiTMeUfqPqBTknVtoOhBeZcgYfW/WZ6hDRnKnGEYaOSEzBTEnkhYJVHM
JSfZ4+Vvk2xrm+Up1MUERAgnT/YYDIPBm8/I/1vEQJbKxR/c+XnKNAllL9CHyW66
nXikTVD77BMA/mn7G6w8HmZKnKdMBVuP5w4+UQIpXGyqhMa/ihgHSG7YKtDZ/tNL
AOtaGbUFzFiSD7lLsmi8/g2HWDz8+AHcM8ecQissNI+NpUF8J1pUNU174AlMggRO
yZNl7CGSQY8ak8YWJwIDAQABo3sweTAJBgNVHRMEAjAAMCwGCWCGSAGG+EIBDQQf
Fh1PcGVuU1NMIEdlbmVyYXRlZCBDZXJ0aWZpY2F0ZTAdBgNVHQ4EFgQU+bFeE5xR
M72Q6leMlCPHg2Z7N9kwHwYDVR0jBBgwFoAUwCyzxpYmSNISNNA3r4QWElv+kdcw
DQYJKoZIhvcNAQEFBQADggEBAAfrnibcY14ZolJdM9fiqcMOXU9sKtkKG3M5Jtbf
4f4R9+MD9zHO1zXM9VxCJUfEtgJmuaoAEPKRVUBK7bHlfxSWJdavEPwv3mY3Zr94
LOs8UWPSQbQrGTdkKk2H6uGFB+UridNNOVU5X/c4RhieR/YFnSNnLK3pCJ0gxYWH
TYPPrHTgxw2QQVYHI8hrbsB/RbIgGwi1O6/wwyfelD05F7tZFUp+ASUr+LWhEJHt
kqnfU0vRdqMzeudPQLy+nhQfl/jS2V+vygiwbb/87hi5jk9SFGQ1Gc3YQupuG9hT
88O0QzI1qnwoV5Igj+fqCPcBn1U+fzDqLSup59/J/JR+trU=
-----END CERTIFICATE-----
