Certificate:
    Data:
        Version: 3 (0x2)
        Serial Number: 6 (0x6)
        Signature Algorithm: sha1WithRSAEncryption
        Issuer: C=CH, ST=Zurich, L=Zurich, O=iMovies, OU=CA, CN=CA
        Validity
            Not Before: Nov 15 16:45:17 2017 GMT
            Not After : Nov 15 16:45:17 2018 GMT
        Subject: C=CH, ST=Zurich, O=iMovies, OU=Administration, CN=sys_admin
        Subject Public Key Info:
            Public Key Algorithm: rsaEncryption
            RSA Public Key: (2048 bit)
                Modulus (2048 bit):
                    00:bc:51:3e:40:a4:34:7e:10:ab:93:7f:91:00:3b:
                    c6:3b:f8:f1:c9:e1:6b:46:27:e8:08:62:b0:7c:7b:
                    6f:f6:83:0e:ab:61:be:82:be:df:5b:16:b4:09:68:
                    f4:5e:55:c2:cf:0c:47:26:d4:5c:21:e4:fb:81:9f:
                    b8:00:cb:6b:35:a6:b7:a7:18:ab:48:05:04:17:da:
                    53:81:bd:69:30:6b:ae:9d:d3:76:9d:a9:1d:9f:63:
                    de:85:4d:48:9f:e8:fd:0c:82:30:99:3b:7e:86:c2:
                    6f:22:15:70:92:f2:fb:52:07:96:d0:fd:71:56:17:
                    1e:c3:80:98:41:a3:ba:1f:2c:ca:2b:1b:f1:6c:00:
                    a1:a8:76:3e:3e:47:aa:8e:0f:ce:23:1d:d4:e6:be:
                    cd:e1:50:84:b2:5b:86:c1:a7:51:63:70:f2:fd:d0:
                    a3:20:3f:3b:c0:c7:bd:93:f5:8d:ba:75:6c:0b:6d:
                    dd:a1:aa:1e:36:65:29:6f:9c:e4:cf:94:5b:a9:3f:
                    2a:35:1c:c0:91:a6:f8:82:1b:be:c5:d5:7b:f4:9c:
                    d9:41:a8:c2:73:3b:b5:50:3d:c0:c2:c3:73:4a:ae:
                    a5:1e:d1:d8:7f:79:ec:89:bc:d8:7a:01:09:3c:45:
                    5f:df:54:ea:72:82:02:0d:bb:ec:7a:2e:08:58:b5:
                    af:d5
                Exponent: 65537 (0x10001)
        X509v3 extensions:
            X509v3 Basic Constraints: 
                CA:FALSE
            Netscape Comment: 
                OpenSSL Generated Certificate
            X509v3 Subject Key Identifier: 
                BE:F9:AD:D9:36:52:A9:3B:4E:FB:63:9A:4D:47:FE:C7:3C:7A:DE:7F
            X509v3 Authority Key Identifier: 
                keyid:C0:2C:B3:C6:96:26:48:D2:12:34:D0:37:AF:84:16:12:5B:FE:91:D7

    Signature Algorithm: sha1WithRSAEncryption
        87:30:7d:e0:4b:ba:29:f0:a8:5b:f6:b0:fc:2c:bc:68:ed:38:
        e6:c2:21:6e:e7:44:02:27:84:fe:be:f7:c2:5c:4d:ea:4d:2e:
        06:e0:cf:5e:1c:10:ac:09:70:a7:4e:5c:15:45:7f:94:1c:08:
        99:d4:30:6e:75:68:90:6a:b1:30:0f:d2:b9:3d:08:40:f7:01:
        df:2d:1f:e7:ca:f5:0e:75:21:9e:0f:a4:12:4e:2c:37:f0:2a:
        4f:91:b2:c3:7c:7f:02:5c:5d:f9:ad:bd:c6:22:22:cd:a1:89:
        7c:0f:e5:0a:f7:8c:ab:ce:6a:80:82:c3:ae:09:8b:2b:ed:7d:
        e7:c7:75:70:af:27:25:86:b8:f6:5e:e0:78:d3:1f:57:0d:f5:
        8d:d5:f1:45:50:30:db:bf:64:de:59:f2:4f:90:b9:5e:3a:62:
        0b:cb:65:65:21:55:22:d3:40:9e:75:67:1a:f6:a4:07:77:d7:
        59:19:f2:f5:d4:17:72:e5:be:7e:ed:10:0d:5b:98:76:2e:4d:
        c5:a7:29:cb:72:85:23:a1:44:3f:11:91:62:bc:2f:f3:6f:7e:
        e5:7c:11:17:00:25:50:52:ac:24:7e:70:35:5d:4a:70:63:d9:
        a5:19:42:53:b5:ad:b6:ae:9e:66:90:12:67:42:24:ed:a2:13:
        c5:9c:87:88
-----BEGIN CERTIFICATE-----
MIIDrjCCApagAwIBAgIBBjANBgkqhkiG9w0BAQUFADBbMQswCQYDVQQGEwJDSDEP
MA0GA1UECAwGWnVyaWNoMQ8wDQYDVQQHDAZadXJpY2gxEDAOBgNVBAoMB2lNb3Zp
ZXMxCzAJBgNVBAsMAkNBMQswCQYDVQQDDAJDQTAeFw0xNzExMTUxNjQ1MTdaFw0x
ODExMTUxNjQ1MTdaMF0xCzAJBgNVBAYTAkNIMQ8wDQYDVQQIDAZadXJpY2gxEDAO
BgNVBAoMB2lNb3ZpZXMxFzAVBgNVBAsMDkFkbWluaXN0cmF0aW9uMRIwEAYDVQQD
DAlzeXNfYWRtaW4wggEiMA0GCSqGSIb3DQEBAQUAA4IBDwAwggEKAoIBAQC8UT5A
pDR+EKuTf5EAO8Y7+PHJ4WtGJ+gIYrB8e2/2gw6rYb6Cvt9bFrQJaPReVcLPDEcm
1Fwh5PuBn7gAy2s1prenGKtIBQQX2lOBvWkwa66d03adqR2fY96FTUif6P0MgjCZ
O36Gwm8iFXCS8vtSB5bQ/XFWFx7DgJhBo7ofLMorG/FsAKGodj4+R6qOD84jHdTm
vs3hUISyW4bBp1FjcPL90KMgPzvAx72T9Y26dWwLbd2hqh42ZSlvnOTPlFupPyo1
HMCRpviCG77F1Xv0nNlBqMJzO7VQPcDCw3NKrqUe0dh/eeyJvNh6AQk8RV/fVOpy
ggINu+x6LghYta/VAgMBAAGjezB5MAkGA1UdEwQCMAAwLAYJYIZIAYb4QgENBB8W
HU9wZW5TU0wgR2VuZXJhdGVkIENlcnRpZmljYXRlMB0GA1UdDgQWBBS++a3ZNlKp
O077Y5pNR/7HPHrefzAfBgNVHSMEGDAWgBTALLPGliZI0hI00DevhBYSW/6R1zAN
BgkqhkiG9w0BAQUFAAOCAQEAhzB94Eu6KfCoW/aw/Cy8aO045sIhbudEAieE/r73
wlxN6k0uBuDPXhwQrAlwp05cFUV/lBwImdQwbnVokGqxMA/SuT0IQPcB3y0f58r1
DnUhng+kEk4sN/AqT5Gyw3x/Alxd+a29xiIizaGJfA/lCveMq85qgILDrgmLK+19
58d1cK8nJYa49l7geNMfVw31jdXxRVAw279k3lnyT5C5XjpiC8tlZSFVItNAnnVn
GvakB3fXWRny9dQXcuW+fu0QDVuYdi5Nxacpy3KFI6FEPxGRYrwv829+5XwRFwAl
UFKsJH5wNV1KcGPZpRlCU7Wttq6eZpASZ0Ik7aITxZyHiA==
-----END CERTIFICATE-----
