Certificate:
    Data:
        Version: 3 (0x2)
        Serial Number: 6 (0x6)
        Signature Algorithm: sha1WithRSAEncryption
        Issuer: C=CH, ST=Zurich, L=Zurich, O=iMovies, OU=CA, CN=CA
        Validity
            Not Before: Nov 15 14:11:52 2017 GMT
            Not After : Nov 15 14:11:52 2018 GMT
        Subject: C=CH, ST=Zurich, O=iMovies, OU=Infrastructure, CN=core_ca
        Subject Public Key Info:
            Public Key Algorithm: rsaEncryption
            RSA Public Key: (2048 bit)
                Modulus (2048 bit):
                    00:a8:ab:30:9b:92:f4:31:87:e5:d6:9f:90:a9:de:
                    29:87:14:c7:ce:e0:d9:89:e8:15:e1:1a:45:97:93:
                    0e:fb:c2:67:06:b6:55:e0:38:31:c3:26:5a:33:a8:
                    17:3d:e1:a7:5a:64:dd:b4:37:b0:2b:70:c2:23:e9:
                    4e:b5:27:8a:84:12:5d:14:71:43:e4:d2:07:c8:c1:
                    2b:a8:ec:e1:a8:52:c8:54:5b:85:4a:2b:05:78:d5:
                    bf:18:73:3f:cb:b3:46:2b:7f:75:a6:0a:b9:8c:41:
                    cf:06:ca:26:66:80:14:54:f6:95:42:69:81:48:c5:
                    18:e7:8d:10:f6:11:1d:5a:b7:00:ec:ae:01:42:88:
                    3f:98:05:b1:c5:a8:1e:74:4b:c6:90:71:2a:1c:ce:
                    23:c9:d2:37:9f:20:98:e6:b3:e1:6c:0c:8f:63:a0:
                    75:9d:fc:25:64:37:9d:12:ee:3e:29:6a:ec:3f:e2:
                    ab:c2:16:05:75:4d:66:bc:3e:1b:c4:76:6e:39:db:
                    cc:e7:3c:fa:0d:69:bb:46:e8:27:d6:67:a0:b1:1a:
                    f9:a3:e0:69:43:c0:ac:db:2e:a1:bc:a9:8e:5c:72:
                    59:04:72:58:39:3b:ae:72:1b:ab:6f:bd:6f:de:14:
                    1b:fb:1e:a5:0b:6a:cb:ba:2e:dc:77:00:9a:eb:42:
                    fb:31
                Exponent: 65537 (0x10001)
        X509v3 extensions:
            X509v3 Basic Constraints: 
                CA:FALSE
            Netscape Comment: 
                OpenSSL Generated Certificate
            X509v3 Subject Key Identifier: 
                50:48:B6:A7:E4:06:DB:3F:72:96:EF:27:0C:A6:9A:0F:F3:2C:E0:6B
            X509v3 Authority Key Identifier: 
                keyid:C0:2C:B3:C6:96:26:48:D2:12:34:D0:37:AF:84:16:12:5B:FE:91:D7

    Signature Algorithm: sha1WithRSAEncryption
        57:72:28:ae:ca:17:42:2f:21:2b:14:bd:50:0e:c5:1f:c6:75:
        a7:29:52:e0:b9:21:fd:c6:35:fd:fb:f4:5a:35:74:bf:60:52:
        2d:99:20:38:e4:ce:63:76:07:26:76:88:69:2c:af:85:de:60:
        0d:40:68:da:73:7f:67:da:89:4b:64:19:bf:c1:39:f3:34:f3:
        0f:3e:dd:6c:ef:48:c0:13:e9:19:0d:48:0e:4f:07:dd:ab:26:
        04:c4:0f:75:ff:ac:87:d1:d9:a4:26:60:1d:32:05:8e:30:bb:
        f2:d3:e5:ae:01:b2:cd:cf:5e:db:d6:f7:2b:66:5e:d7:e6:43:
        45:b6:75:ef:bd:5f:d0:62:6b:cb:9f:c1:bf:3a:97:31:ce:ca:
        03:74:3d:9b:fd:41:dc:2f:28:d3:31:1f:83:60:f9:98:09:21:
        86:76:ad:4f:11:a8:26:93:18:bf:a4:d0:17:6a:1e:d5:9d:d5:
        a2:6c:cf:34:8d:de:b9:bf:e4:6f:5a:82:43:ac:26:5f:b5:f2:
        22:a4:a9:51:e7:63:ac:d0:94:74:75:f9:e3:e3:f3:88:89:3c:
        b1:d8:24:7e:1b:f3:5f:6e:c5:66:d2:c3:cc:40:cf:2a:c8:93:
        e0:d2:6b:fc:b6:8e:12:bb:36:f3:84:b5:e3:aa:52:52:2e:5f:
        ce:f1:b0:7c
-----BEGIN CERTIFICATE-----
MIIDrDCCApSgAwIBAgIBBjANBgkqhkiG9w0BAQUFADBbMQswCQYDVQQGEwJDSDEP
MA0GA1UECAwGWnVyaWNoMQ8wDQYDVQQHDAZadXJpY2gxEDAOBgNVBAoMB2lNb3Zp
ZXMxCzAJBgNVBAsMAkNBMQswCQYDVQQDDAJDQTAeFw0xNzExMTUxNDExNTJaFw0x
ODExMTUxNDExNTJaMFsxCzAJBgNVBAYTAkNIMQ8wDQYDVQQIDAZadXJpY2gxEDAO
BgNVBAoMB2lNb3ZpZXMxFzAVBgNVBAsMDkluZnJhc3RydWN0dXJlMRAwDgYDVQQD
DAdjb3JlX2NhMIIBIjANBgkqhkiG9w0BAQEFAAOCAQ8AMIIBCgKCAQEAqKswm5L0
MYfl1p+Qqd4phxTHzuDZiegV4RpFl5MO+8JnBrZV4DgxwyZaM6gXPeGnWmTdtDew
K3DCI+lOtSeKhBJdFHFD5NIHyMErqOzhqFLIVFuFSisFeNW/GHM/y7NGK391pgq5
jEHPBsomZoAUVPaVQmmBSMUY540Q9hEdWrcA7K4BQog/mAWxxagedEvGkHEqHM4j
ydI3nyCY5rPhbAyPY6B1nfwlZDedEu4+KWrsP+KrwhYFdU1mvD4bxHZuOdvM5zz6
DWm7Rugn1megsRr5o+BpQ8Cs2y6hvKmOXHJZBHJYOTuuchurb71v3hQb+x6lC2rL
ui7cdwCa60L7MQIDAQABo3sweTAJBgNVHRMEAjAAMCwGCWCGSAGG+EIBDQQfFh1P
cGVuU1NMIEdlbmVyYXRlZCBDZXJ0aWZpY2F0ZTAdBgNVHQ4EFgQUUEi2p+QG2z9y
lu8nDKaaD/Ms4GswHwYDVR0jBBgwFoAUwCyzxpYmSNISNNA3r4QWElv+kdcwDQYJ
KoZIhvcNAQEFBQADggEBAFdyKK7KF0IvISsUvVAOxR/GdacpUuC5If3GNf379Fo1
dL9gUi2ZIDjkzmN2ByZ2iGksr4XeYA1AaNpzf2faiUtkGb/BOfM08w8+3WzvSMAT
6RkNSA5PB92rJgTED3X/rIfR2aQmYB0yBY4wu/LT5a4Bss3PXtvW9ytmXtfmQ0W2
de+9X9Bia8ufwb86lzHOygN0PZv9QdwvKNMxH4Ng+ZgJIYZ2rU8RqCaTGL+k0Bdq
HtWd1aJszzSN3rm/5G9agkOsJl+18iKkqVHnY6zQlHR1+ePj84iJPLHYJH4b819u
xWbSw8xAzyrIk+DSa/y2jhK7NvOEteOqUlIuX87xsHw=
-----END CERTIFICATE-----
