Certificate:
    Data:
        Version: 3 (0x2)
        Serial Number: 7 (0x7)
        Signature Algorithm: sha1WithRSAEncryption
        Issuer: C=CH, ST=Zurich, L=Zurich, O=iMovies, OU=CA, CN=CA
        Validity
            Not Before: Nov 15 14:13:17 2017 GMT
            Not After : Nov 15 14:13:17 2018 GMT
        Subject: C=CH, ST=Zurich, O=iMovies, OU=Infrastructure, CN=backup
        Subject Public Key Info:
            Public Key Algorithm: rsaEncryption
            RSA Public Key: (2048 bit)
                Modulus (2048 bit):
                    00:cf:31:e2:71:a2:73:a3:e5:bc:7b:a2:d6:25:12:
                    bd:fc:c7:22:c7:6e:66:f8:10:a3:0b:b8:df:a1:62:
                    3a:f5:37:99:0c:e6:19:f3:60:ae:c5:4b:88:f8:0a:
                    7c:bb:c5:e8:78:58:fd:2f:dd:8f:33:02:13:a6:be:
                    ef:b9:e0:c3:9a:92:f8:81:de:9a:87:dd:f1:31:91:
                    76:ed:e7:dc:79:9a:37:e8:01:8c:f9:60:07:82:65:
                    c3:dc:f3:18:73:b6:9a:35:94:e0:a4:d7:9b:7a:a2:
                    28:bc:18:f6:7b:dc:71:c0:21:9d:d4:28:d5:e5:84:
                    35:de:66:09:74:0b:61:4d:9b:53:18:b5:72:8b:88:
                    c1:5f:1e:56:ee:f5:6c:c9:b3:c7:ae:e7:8c:b5:ae:
                    8d:2a:15:28:b9:c2:c3:32:2e:c3:ac:d7:70:81:bc:
                    8d:70:61:47:6a:40:6d:82:17:02:eb:05:aa:41:91:
                    71:be:72:04:be:6b:de:96:cb:2a:6e:fa:af:21:c2:
                    43:d9:40:53:0f:e3:03:c8:8f:f5:eb:c2:c4:02:0e:
                    0c:ed:90:6c:bb:7b:04:a3:ad:6d:b7:54:47:a0:d4:
                    df:6b:29:5b:e6:1d:ed:6f:92:19:ff:56:d6:65:39:
                    f6:1e:b4:f4:3a:d7:5a:7d:ce:d4:e7:27:ba:c3:d7:
                    d9:2f
                Exponent: 65537 (0x10001)
        X509v3 extensions:
            X509v3 Basic Constraints: 
                CA:FALSE
            Netscape Comment: 
                OpenSSL Generated Certificate
            X509v3 Subject Key Identifier: 
                30:58:32:0F:3D:58:AC:1C:8A:9D:02:C6:0E:75:52:0E:CC:C9:C7:43
            X509v3 Authority Key Identifier: 
                keyid:C0:2C:B3:C6:96:26:48:D2:12:34:D0:37:AF:84:16:12:5B:FE:91:D7

    Signature Algorithm: sha1WithRSAEncryption
        8a:4d:35:84:01:e5:e5:02:8f:4c:22:eb:04:dc:32:fa:59:c9:
        82:9d:a9:5b:f2:0b:0c:ca:c1:3e:e2:31:a6:3a:a7:47:a7:af:
        5a:6b:cc:35:43:ea:7f:f9:94:b8:20:e6:b4:bd:45:ea:ce:af:
        6e:89:b3:dc:b5:73:01:72:13:68:42:01:9a:03:6a:a4:0b:ee:
        20:d2:e6:17:3d:f1:b0:38:2d:65:df:c7:9d:77:ee:7a:4a:d3:
        b6:7c:a6:a8:87:7f:cf:b5:39:f2:ca:a1:39:cd:82:81:5e:8e:
        97:86:76:43:99:f5:28:07:71:76:09:90:97:a9:b8:3c:de:5c:
        13:e1:56:b3:a2:39:fe:74:d7:83:bd:e0:be:ec:d3:33:92:8b:
        a5:0a:d0:b0:72:82:1b:cb:66:95:42:4a:a4:4d:a2:7e:d8:bb:
        3b:c7:27:78:1b:5a:81:bd:68:11:73:0c:32:14:ea:5f:5e:a3:
        15:7d:13:1f:5b:ab:5d:42:41:18:aa:54:df:57:f9:da:50:58:
        ba:22:3a:17:e1:5f:cc:55:d9:df:ed:25:8b:68:9a:65:4d:8c:
        06:11:80:c9:d4:39:bc:c8:d7:39:12:fd:db:02:da:4e:3c:ca:
        61:f9:6b:35:8b:86:44:ea:22:77:2c:ad:54:2c:c6:a3:65:c0:
        75:ea:a9:b3
-----BEGIN CERTIFICATE-----
MIIDqzCCApOgAwIBAgIBBzANBgkqhkiG9w0BAQUFADBbMQswCQYDVQQGEwJDSDEP
MA0GA1UECAwGWnVyaWNoMQ8wDQYDVQQHDAZadXJpY2gxEDAOBgNVBAoMB2lNb3Zp
ZXMxCzAJBgNVBAsMAkNBMQswCQYDVQQDDAJDQTAeFw0xNzExMTUxNDEzMTdaFw0x
ODExMTUxNDEzMTdaMFoxCzAJBgNVBAYTAkNIMQ8wDQYDVQQIDAZadXJpY2gxEDAO
BgNVBAoMB2lNb3ZpZXMxFzAVBgNVBAsMDkluZnJhc3RydWN0dXJlMQ8wDQYDVQQD
DAZiYWNrdXAwggEiMA0GCSqGSIb3DQEBAQUAA4IBDwAwggEKAoIBAQDPMeJxonOj
5bx7otYlEr38xyLHbmb4EKMLuN+hYjr1N5kM5hnzYK7FS4j4Cny7xeh4WP0v3Y8z
AhOmvu+54MOakviB3pqH3fExkXbt59x5mjfoAYz5YAeCZcPc8xhztpo1lOCk15t6
oii8GPZ73HHAIZ3UKNXlhDXeZgl0C2FNm1MYtXKLiMFfHlbu9WzJs8eu54y1ro0q
FSi5wsMyLsOs13CBvI1wYUdqQG2CFwLrBapBkXG+cgS+a96Wyypu+q8hwkPZQFMP
4wPIj/XrwsQCDgztkGy7ewSjrW23VEeg1N9rKVvmHe1vkhn/VtZlOfYetPQ611p9
ztTnJ7rD19kvAgMBAAGjezB5MAkGA1UdEwQCMAAwLAYJYIZIAYb4QgENBB8WHU9w
ZW5TU0wgR2VuZXJhdGVkIENlcnRpZmljYXRlMB0GA1UdDgQWBBQwWDIPPVisHIqd
AsYOdVIOzMnHQzAfBgNVHSMEGDAWgBTALLPGliZI0hI00DevhBYSW/6R1zANBgkq
hkiG9w0BAQUFAAOCAQEAik01hAHl5QKPTCLrBNwy+lnJgp2pW/ILDMrBPuIxpjqn
R6evWmvMNUPqf/mUuCDmtL1F6s6vbomz3LVzAXITaEIBmgNqpAvuINLmFz3xsDgt
Zd/HnXfuekrTtnymqId/z7U58sqhOc2CgV6Ol4Z2Q5n1KAdxdgmQl6m4PN5cE+FW
s6I5/nTXg73gvuzTM5KLpQrQsHKCG8tmlUJKpE2ifti7O8cneBtagb1oEXMMMhTq
X16jFX0TH1urXUJBGKpU31f52lBYuiI6F+FfzFXZ3+0li2iaZU2MBhGAydQ5vMjX
ORL92wLaTjzKYflrNYuGROoidyytVCzGo2XAdeqpsw==
-----END CERTIFICATE-----
