Certificate:
    Data:
        Version: 3 (0x2)
        Serial Number: 7 (0x7)
        Signature Algorithm: sha1WithRSAEncryption
        Issuer: C=CH, ST=Zurich, L=Zurich, O=iMovies, OU=CA, CN=CA
        Validity
            Not Before: Nov 15 16:45:25 2017 GMT
            Not After : Nov 15 16:45:25 2018 GMT
        Subject: C=CH, ST=Zurich, O=iMovies, OU=Administration, CN=ca_admin
        Subject Public Key Info:
            Public Key Algorithm: rsaEncryption
            RSA Public Key: (2048 bit)
                Modulus (2048 bit):
                    00:b1:fd:41:b3:79:b7:f0:e9:cc:79:f2:21:e4:78:
                    de:0a:65:d3:e6:41:2f:42:56:8a:b2:e5:15:46:49:
                    46:73:b5:19:9c:04:74:e2:18:7e:f9:f9:8e:02:48:
                    d8:4e:b1:e1:9a:0c:e6:b0:76:74:ee:ce:29:db:8a:
                    92:19:c7:65:c6:b5:db:0b:cd:3b:96:03:e8:a3:18:
                    ef:fb:dd:f2:ac:eb:43:01:bc:40:65:2a:ce:de:0f:
                    f4:44:0c:3d:bf:b3:37:e7:5a:48:ab:77:fb:4e:69:
                    79:8e:1f:67:27:49:4e:46:6d:88:6d:d0:75:4c:07:
                    f7:be:5a:fd:49:a4:0b:25:dc:a5:dc:cb:c4:2a:8f:
                    1f:6d:d2:ca:93:ab:5e:c9:21:d2:33:d0:80:f1:f8:
                    19:06:88:e0:a7:24:48:22:14:80:33:15:c7:f0:01:
                    f4:b5:54:e0:ac:b6:f2:8f:e3:37:99:1e:76:9f:c7:
                    8d:11:85:6f:cc:ad:ec:50:8a:3c:34:2b:f8:af:a2:
                    cc:c7:07:fa:15:3e:85:17:5e:0c:1f:fb:1f:3d:f2:
                    0d:f9:3b:55:97:ed:61:de:4c:2f:3c:f7:3e:a8:c7:
                    5c:9a:2d:7f:7d:14:96:35:20:17:b6:22:93:27:e0:
                    07:85:8c:69:02:dd:88:7c:15:13:11:fd:96:1a:c0:
                    f0:2f
                Exponent: 65537 (0x10001)
        X509v3 extensions:
            X509v3 Basic Constraints: 
                CA:FALSE
            Netscape Comment: 
                OpenSSL Generated Certificate
            X509v3 Subject Key Identifier: 
                EB:E4:78:05:1B:B8:2F:7D:84:1A:A5:78:33:2B:C0:B0:CB:6E:BA:9F
            X509v3 Authority Key Identifier: 
                keyid:C0:2C:B3:C6:96:26:48:D2:12:34:D0:37:AF:84:16:12:5B:FE:91:D7

    Signature Algorithm: sha1WithRSAEncryption
        a3:da:77:4d:dc:00:f4:1c:c8:f5:53:60:c0:96:71:22:6c:9f:
        c8:a1:97:cd:63:da:f7:5d:ba:c9:a5:47:d4:7e:58:6b:22:69:
        84:76:c2:d4:f2:64:07:74:15:c0:41:57:59:db:7f:e6:23:e3:
        a5:64:86:bf:f7:f3:74:7e:d1:59:bd:06:95:52:de:70:bd:89:
        14:2a:ee:10:f1:45:2c:94:4f:ba:44:db:00:55:66:44:b0:f2:
        2a:ff:f3:61:f6:84:e6:bd:ae:00:71:f6:08:c3:33:ca:50:05:
        bb:a8:bd:a1:d4:35:ea:ec:18:4c:09:f7:0b:ba:70:7d:79:e9:
        82:ec:33:91:83:93:2d:06:ee:16:7f:09:c5:10:b8:c8:ae:64:
        d2:28:9d:86:c0:5b:8e:d6:82:06:b1:76:03:e1:df:4f:2a:8a:
        a0:8a:33:d2:57:35:5e:94:40:bf:60:31:4f:83:52:34:bb:a4:
        95:a8:8c:2e:07:99:20:50:7a:ff:75:b1:23:98:dc:b5:ea:36:
        fd:a4:85:66:f8:ba:a0:94:91:3a:35:36:33:17:ae:bb:76:2a:
        ed:a9:17:1f:54:af:7d:f5:50:52:b5:3b:6d:ae:2c:65:55:b7:
        d5:cd:eb:7a:ac:57:95:4f:b5:28:ad:fc:13:d6:6c:78:34:1a:
        55:32:37:2d
-----BEGIN CERTIFICATE-----
MIIDrTCCApWgAwIBAgIBBzANBgkqhkiG9w0BAQUFADBbMQswCQYDVQQGEwJDSDEP
MA0GA1UECAwGWnVyaWNoMQ8wDQYDVQQHDAZadXJpY2gxEDAOBgNVBAoMB2lNb3Zp
ZXMxCzAJBgNVBAsMAkNBMQswCQYDVQQDDAJDQTAeFw0xNzExMTUxNjQ1MjVaFw0x
ODExMTUxNjQ1MjVaMFwxCzAJBgNVBAYTAkNIMQ8wDQYDVQQIDAZadXJpY2gxEDAO
BgNVBAoMB2lNb3ZpZXMxFzAVBgNVBAsMDkFkbWluaXN0cmF0aW9uMREwDwYDVQQD
DAhjYV9hZG1pbjCCASIwDQYJKoZIhvcNAQEBBQADggEPADCCAQoCggEBALH9QbN5
t/DpzHnyIeR43gpl0+ZBL0JWirLlFUZJRnO1GZwEdOIYfvn5jgJI2E6x4ZoM5rB2
dO7OKduKkhnHZca12wvNO5YD6KMY7/vd8qzrQwG8QGUqzt4P9EQMPb+zN+daSKt3
+05peY4fZydJTkZtiG3QdUwH975a/UmkCyXcpdzLxCqPH23SypOrXskh0jPQgPH4
GQaI4KckSCIUgDMVx/AB9LVU4Ky28o/jN5kedp/HjRGFb8yt7FCKPDQr+K+izMcH
+hU+hRdeDB/7Hz3yDfk7VZftYd5MLzz3PqjHXJotf30UljUgF7YikyfgB4WMaQLd
iHwVExH9lhrA8C8CAwEAAaN7MHkwCQYDVR0TBAIwADAsBglghkgBhvhCAQ0EHxYd
T3BlblNTTCBHZW5lcmF0ZWQgQ2VydGlmaWNhdGUwHQYDVR0OBBYEFOvkeAUbuC99
hBqleDMrwLDLbrqfMB8GA1UdIwQYMBaAFMAss8aWJkjSEjTQN6+EFhJb/pHXMA0G
CSqGSIb3DQEBBQUAA4IBAQCj2ndN3AD0HMj1U2DAlnEibJ/IoZfNY9r3XbrJpUfU
flhrImmEdsLU8mQHdBXAQVdZ23/mI+OlZIa/9/N0ftFZvQaVUt5wvYkUKu4Q8UUs
lE+6RNsAVWZEsPIq//Nh9oTmva4AcfYIwzPKUAW7qL2h1DXq7BhMCfcLunB9eemC
7DORg5MtBu4WfwnFELjIrmTSKJ2GwFuO1oIGsXYD4d9PKoqgijPSVzVelEC/YDFP
g1I0u6SVqIwuB5kgUHr/dbEjmNy16jb9pIVm+LqglJE6NTYzF667dirtqRcfVK99
9VBStTttrixlVbfVzet6rFeVT7UorfwT1mx4NBpVMjct
-----END CERTIFICATE-----
