Certificate:
    Data:
        Version: 3 (0x2)
        Serial Number: 8 (0x8)
        Signature Algorithm: sha1WithRSAEncryption
        Issuer: C=CH, ST=Zurich, L=Zurich, O=iMovies, OU=CA, CN=CA
        Validity
            Not Before: Nov 17 11:49:12 2017 GMT
            Not After : Nov 17 11:49:12 2018 GMT
        Subject: C=CH, ST=Zurich, O=iMovies, OU=User, CN=lol
        Subject Public Key Info:
            Public Key Algorithm: rsaEncryption
            RSA Public Key: (2048 bit)
                Modulus (2048 bit):
                    00:cf:9a:d3:18:8b:dd:69:00:8f:33:48:a1:da:54:
                    d6:fb:d0:6d:17:6a:19:f9:a1:5b:d1:d6:0c:c4:f4:
                    fa:13:b9:26:63:55:a5:7f:c5:4a:94:e2:71:36:3d:
                    91:22:83:7c:ac:f6:76:fb:da:02:b3:9d:38:a0:9c:
                    0d:d2:88:3b:9a:e1:d0:b9:f3:70:28:a9:1b:4a:4f:
                    7a:13:24:08:10:d1:68:bd:c9:5c:fd:a7:0b:38:d3:
                    de:58:e3:5f:18:b0:cf:28:ab:13:c2:84:1b:ab:a1:
                    a8:43:06:dd:7b:25:c6:35:4e:84:1f:c0:91:b1:30:
                    40:88:ac:64:2a:42:27:56:58:76:7a:f7:2f:b0:cd:
                    68:64:98:f7:de:6d:8a:c8:78:90:84:5f:1b:bf:b7:
                    c5:c0:82:c3:6c:43:96:d1:35:43:65:a7:db:ef:1e:
                    6d:fc:b4:5c:97:ec:e3:b8:d5:d5:55:be:34:92:4a:
                    49:75:1b:99:ff:45:b9:51:7c:2d:8a:2f:3e:51:f0:
                    e6:b3:60:67:01:db:d9:85:73:b3:97:f4:a8:27:e9:
                    9e:32:9d:61:e7:0f:84:55:73:82:9f:32:42:e8:32:
                    da:c5:11:cb:e8:24:be:19:30:62:4f:b7:7f:b9:c4:
                    75:a8:bd:12:31:02:b5:83:72:92:67:2c:d0:4c:0f:
                    51:27
                Exponent: 65537 (0x10001)
        X509v3 extensions:
            X509v3 Basic Constraints: 
                CA:FALSE
            Netscape Comment: 
                OpenSSL Generated Certificate
            X509v3 Subject Key Identifier: 
                81:22:09:90:C9:B5:71:55:E5:6B:1A:34:29:77:11:04:99:30:46:07
            X509v3 Authority Key Identifier: 
                keyid:C0:2C:B3:C6:96:26:48:D2:12:34:D0:37:AF:84:16:12:5B:FE:91:D7

    Signature Algorithm: sha1WithRSAEncryption
        96:09:41:43:5d:71:98:b2:68:b1:36:fa:26:39:21:02:e4:06:
        13:2e:f1:3f:cb:b5:96:1c:8d:c7:1d:1c:5a:29:2e:a6:3e:36:
        84:60:5d:55:cb:3d:07:71:8b:0e:a3:3a:5e:d5:80:a2:0d:f8:
        bb:93:d9:4d:be:bb:11:c2:2c:e1:9b:4a:0c:c0:64:1d:7e:0f:
        70:8e:bf:04:b8:a6:a2:86:1c:cc:87:51:bf:5f:3f:21:8d:f6:
        7c:f8:59:17:5d:8f:33:1b:1b:c6:43:7b:f7:f7:fc:4c:3f:51:
        4a:b8:3c:e2:e3:b0:9a:94:26:12:8a:89:0f:cd:c5:b6:a5:44:
        35:8e:1e:81:84:a3:f7:48:34:66:ff:c2:94:63:69:67:6a:34:
        ee:af:9c:8f:c5:7c:e0:b0:2f:c8:a6:31:ab:f5:3f:94:19:b8:
        1c:e1:c2:a7:ef:4c:b1:3a:a5:01:a3:19:ac:c8:60:f3:2d:cb:
        a1:a9:64:91:dc:fb:7f:fd:c5:92:3e:13:c6:fb:13:50:97:fb:
        97:b0:ed:03:cf:02:ee:d3:f0:52:9d:f7:e9:a4:cc:7d:14:29:
        bf:1f:10:6d:af:e2:76:a7:94:c4:12:d4:16:d3:38:0b:c6:51:
        72:11:7f:a0:f9:e5:ec:a0:ec:a8:b5:ef:8e:bf:27:dd:e2:12:
        1f:30:e3:20
-----BEGIN CERTIFICATE-----
MIIDnjCCAoagAwIBAgIBCDANBgkqhkiG9w0BAQUFADBbMQswCQYDVQQGEwJDSDEP
MA0GA1UECAwGWnVyaWNoMQ8wDQYDVQQHDAZadXJpY2gxEDAOBgNVBAoMB2lNb3Zp
ZXMxCzAJBgNVBAsMAkNBMQswCQYDVQQDDAJDQTAeFw0xNzExMTcxMTQ5MTJaFw0x
ODExMTcxMTQ5MTJaME0xCzAJBgNVBAYTAkNIMQ8wDQYDVQQIDAZadXJpY2gxEDAO
BgNVBAoMB2lNb3ZpZXMxDTALBgNVBAsMBFVzZXIxDDAKBgNVBAMMA2xvbDCCASIw
DQYJKoZIhvcNAQEBBQADggEPADCCAQoCggEBAM+a0xiL3WkAjzNIodpU1vvQbRdq
GfmhW9HWDMT0+hO5JmNVpX/FSpTicTY9kSKDfKz2dvvaArOdOKCcDdKIO5rh0Lnz
cCipG0pPehMkCBDRaL3JXP2nCzjT3ljjXxiwzyirE8KEG6uhqEMG3XslxjVOhB/A
kbEwQIisZCpCJ1ZYdnr3L7DNaGSY995tish4kIRfG7+3xcCCw2xDltE1Q2Wn2+8e
bfy0XJfs47jV1VW+NJJKSXUbmf9FuVF8LYovPlHw5rNgZwHb2YVzs5f0qCfpnjKd
YecPhFVzgp8yQugy2sURy+gkvhkwYk+3f7nEdai9EjECtYNykmcs0EwPUScCAwEA
AaN7MHkwCQYDVR0TBAIwADAsBglghkgBhvhCAQ0EHxYdT3BlblNTTCBHZW5lcmF0
ZWQgQ2VydGlmaWNhdGUwHQYDVR0OBBYEFIEiCZDJtXFV5WsaNCl3EQSZMEYHMB8G
A1UdIwQYMBaAFMAss8aWJkjSEjTQN6+EFhJb/pHXMA0GCSqGSIb3DQEBBQUAA4IB
AQCWCUFDXXGYsmixNvomOSEC5AYTLvE/y7WWHI3HHRxaKS6mPjaEYF1Vyz0HcYsO
ozpe1YCiDfi7k9lNvrsRwizhm0oMwGQdfg9wjr8EuKaihhzMh1G/Xz8hjfZ8+FkX
XY8zGxvGQ3v39/xMP1FKuDzi47CalCYSiokPzcW2pUQ1jh6BhKP3SDRm/8KUY2ln
ajTur5yPxXzgsC/IpjGr9T+UGbgc4cKn70yxOqUBoxmsyGDzLcuhqWSR3Pt//cWS
PhPG+xNQl/uXsO0DzwLu0/BSnffppMx9FCm/HxBtr+J2p5TEEtQW0zgLxlFyEX+g
+eXsoOyote+Ovyfd4hIfMOMg
-----END CERTIFICATE-----
