Certificate:
    Data:
        Version: 3 (0x2)
        Serial Number: 11 (0xb)
        Signature Algorithm: sha1WithRSAEncryption
        Issuer: C=CH, ST=Zurich, L=Zurich, O=iMovies, OU=CA, CN=CA
        Validity
            Not Before: Nov 15 14:17:05 2017 GMT
            Not After : Nov 15 14:17:05 2018 GMT
        Subject: C=CH, ST=Zurich, O=iMovies, OU=Administration, CN=ca_admin
        Subject Public Key Info:
            Public Key Algorithm: rsaEncryption
            RSA Public Key: (2048 bit)
                Modulus (2048 bit):
                    00:b2:56:81:54:50:ed:e0:d7:17:25:fd:62:5c:3c:
                    eb:db:ac:2f:03:5f:cf:71:14:de:cf:a4:23:57:7f:
                    2f:a7:34:81:cc:a9:0d:37:33:c4:b9:b5:cd:d6:d5:
                    30:91:1b:1d:e7:3d:db:9a:ae:83:05:10:5f:4e:b7:
                    b3:53:9b:1d:1e:27:c1:e2:78:f7:97:02:fa:5e:e5:
                    8e:69:0d:37:2e:49:ad:bb:40:32:5d:1d:8f:0a:c1:
                    81:c8:bc:f7:c9:8f:cb:86:4c:a8:67:04:1b:5b:02:
                    8c:8c:38:a8:57:bd:7f:23:1c:8c:b4:cf:de:68:f8:
                    2c:f4:b8:b6:a9:fe:f0:04:69:e3:3c:a6:1e:4d:b7:
                    c2:7d:d1:9f:01:87:a7:15:0c:7e:a7:ba:b6:69:48:
                    0a:78:8f:95:cd:a6:29:fb:e0:6f:95:d7:c9:3f:40:
                    dc:bc:23:87:e0:b9:52:fd:cb:e8:8e:aa:92:bf:20:
                    5e:9c:fc:71:5a:43:1f:1b:b1:d6:03:c1:a1:51:90:
                    4d:0f:65:61:98:1b:7d:96:45:7a:28:4a:a3:15:96:
                    88:da:0d:65:c0:73:a9:66:ce:2d:b3:24:24:da:ad:
                    2c:0d:d2:2c:ab:0a:a1:62:7b:34:5a:37:e3:70:72:
                    77:fe:7e:8b:a1:a5:80:6e:fa:67:89:b3:4e:a5:96:
                    31:55
                Exponent: 65537 (0x10001)
        X509v3 extensions:
            X509v3 Basic Constraints: 
                CA:FALSE
            Netscape Comment: 
                OpenSSL Generated Certificate
            X509v3 Subject Key Identifier: 
                CD:95:EB:56:36:58:0F:98:31:BA:25:A8:F3:6E:45:E9:40:3E:F0:27
            X509v3 Authority Key Identifier: 
                keyid:C0:2C:B3:C6:96:26:48:D2:12:34:D0:37:AF:84:16:12:5B:FE:91:D7

    Signature Algorithm: sha1WithRSAEncryption
        8d:8e:f1:ee:9b:36:de:a4:f5:c3:77:55:73:4f:21:44:4e:4c:
        b5:84:58:ca:68:e4:93:68:17:72:d6:b2:e0:cb:9d:64:a8:95:
        20:a8:ac:54:55:77:0c:1c:bf:a5:47:23:9b:de:a3:fd:24:81:
        d9:da:d2:9e:fb:7b:c6:bd:bc:73:20:fb:e7:3d:aa:9f:f7:1b:
        eb:6f:55:4b:88:fb:53:70:8f:22:46:d8:f7:26:5c:5d:ae:3e:
        4d:63:f4:86:4d:46:e3:e2:a6:a2:35:69:90:29:6e:8a:f1:32:
        39:3b:7c:2e:ab:6c:55:77:7d:d5:88:ea:8c:bf:13:d2:4f:24:
        90:fe:35:63:55:1e:12:42:9b:cf:39:35:ce:6c:7a:71:c4:74:
        c6:b3:ca:ad:62:1d:5c:42:9a:15:d7:ac:f7:df:72:7b:49:ed:
        f2:59:d7:4c:95:df:93:5f:0a:2f:4d:a8:3e:0f:e1:24:2a:6e:
        70:e9:c6:c8:dc:1a:47:78:5a:87:63:b3:e1:9d:b8:b8:e7:16:
        19:96:a8:d4:12:7f:e5:07:41:4d:23:e3:b1:e3:bd:ff:0d:2e:
        d7:e9:44:40:98:90:1b:37:91:2a:5f:89:0a:27:f9:1b:88:cf:
        83:9e:2e:1f:0b:f5:5b:3f:07:fc:74:34:1f:50:23:99:c4:1c:
        a1:b8:f7:7f
-----BEGIN CERTIFICATE-----
MIIDrTCCApWgAwIBAgIBCzANBgkqhkiG9w0BAQUFADBbMQswCQYDVQQGEwJDSDEP
MA0GA1UECAwGWnVyaWNoMQ8wDQYDVQQHDAZadXJpY2gxEDAOBgNVBAoMB2lNb3Zp
ZXMxCzAJBgNVBAsMAkNBMQswCQYDVQQDDAJDQTAeFw0xNzExMTUxNDE3MDVaFw0x
ODExMTUxNDE3MDVaMFwxCzAJBgNVBAYTAkNIMQ8wDQYDVQQIDAZadXJpY2gxEDAO
BgNVBAoMB2lNb3ZpZXMxFzAVBgNVBAsMDkFkbWluaXN0cmF0aW9uMREwDwYDVQQD
DAhjYV9hZG1pbjCCASIwDQYJKoZIhvcNAQEBBQADggEPADCCAQoCggEBALJWgVRQ
7eDXFyX9Ylw869usLwNfz3EU3s+kI1d/L6c0gcypDTczxLm1zdbVMJEbHec925qu
gwUQX063s1ObHR4nweJ495cC+l7ljmkNNy5JrbtAMl0djwrBgci898mPy4ZMqGcE
G1sCjIw4qFe9fyMcjLTP3mj4LPS4tqn+8ARp4zymHk23wn3RnwGHpxUMfqe6tmlI
CniPlc2mKfvgb5XXyT9A3Lwjh+C5Uv3L6I6qkr8gXpz8cVpDHxux1gPBoVGQTQ9l
YZgbfZZFeihKoxWWiNoNZcBzqWbOLbMkJNqtLA3SLKsKoWJ7NFo343Byd/5+i6Gl
gG76Z4mzTqWWMVUCAwEAAaN7MHkwCQYDVR0TBAIwADAsBglghkgBhvhCAQ0EHxYd
T3BlblNTTCBHZW5lcmF0ZWQgQ2VydGlmaWNhdGUwHQYDVR0OBBYEFM2V61Y2WA+Y
MbolqPNuRelAPvAnMB8GA1UdIwQYMBaAFMAss8aWJkjSEjTQN6+EFhJb/pHXMA0G
CSqGSIb3DQEBBQUAA4IBAQCNjvHumzbepPXDd1VzTyFETky1hFjKaOSTaBdy1rLg
y51kqJUgqKxUVXcMHL+lRyOb3qP9JIHZ2tKe+3vGvbxzIPvnPaqf9xvrb1VLiPtT
cI8iRtj3Jlxdrj5NY/SGTUbj4qaiNWmQKW6K8TI5O3wuq2xVd33ViOqMvxPSTySQ
/jVjVR4SQpvPOTXObHpxxHTGs8qtYh1cQpoV16z333J7Se3yWddMld+TXwovTag+
D+EkKm5w6cbI3BpHeFqHY7Phnbi45xYZlqjUEn/lB0FNI+Ox473/DS7X6URAmJAb
N5EqX4kKJ/kbiM+Dni4fC/VbPwf8dDQfUCOZxByhuPd/
-----END CERTIFICATE-----
