Certificate:
    Data:
        Version: 3 (0x2)
        Serial Number: 1 (0x1)
        Signature Algorithm: sha1WithRSAEncryption
        Issuer: C=CH, ST=Zurich, L=Zurich, O=iMovies, OU=CA, CN=CA
        Validity
            Not Before: Nov 22 10:34:38 2017 GMT
            Not After : Nov 22 10:34:38 2018 GMT
        Subject: C=CH, ST=Zurich, O=iMovies, OU=Administration, CN=192.168.51.14
        Subject Public Key Info:
            Public Key Algorithm: rsaEncryption
            RSA Public Key: (2048 bit)
                Modulus (2048 bit):
                    00:bd:3a:e3:62:96:62:f8:ce:4c:a4:0d:69:cd:57:
                    e9:14:09:fe:e6:61:78:65:43:c4:46:c8:be:28:70:
                    5c:95:28:3c:f6:03:a9:7c:88:cd:39:a9:c1:9f:30:
                    ec:76:9c:8e:62:0e:0d:0a:d9:7d:4b:d3:93:ed:1b:
                    c7:aa:23:c5:cb:08:09:e9:88:5e:02:df:6a:f0:91:
                    9e:61:5e:a6:cf:bd:e9:a7:79:4b:3e:98:5f:08:18:
                    91:2a:c3:5d:6b:87:4b:99:cc:f0:f9:dc:d1:91:2e:
                    68:23:f1:dc:9e:c5:58:d6:de:5c:b0:5c:c3:41:29:
                    65:4d:33:94:ca:26:80:b5:8b:8f:08:b0:44:95:79:
                    2a:3e:c7:fd:72:30:a2:a1:ec:8a:e2:63:46:ed:3d:
                    df:ea:9b:d5:aa:5e:f7:4f:9d:49:32:e7:b2:f0:50:
                    ed:9e:b8:f6:4a:e6:a9:64:f1:05:87:64:5c:dd:58:
                    f7:96:79:30:13:15:04:6f:d5:04:fb:43:b7:2b:fe:
                    b9:22:e2:26:9c:ab:b6:c0:15:e8:db:a2:2b:8b:9a:
                    71:a3:52:7c:ce:b7:fa:82:d8:b9:c3:91:c7:d0:c9:
                    65:ff:03:1b:3b:9c:08:ed:d3:39:86:02:c6:4f:7b:
                    07:ba:ff:7d:15:a8:86:63:69:34:4e:c7:a5:0f:42:
                    4b:29
                Exponent: 65537 (0x10001)
        X509v3 extensions:
            X509v3 Basic Constraints: 
                CA:FALSE
            X509v3 Key Usage: 
                Digital Signature, Non Repudiation, Key Encipherment
            X509v3 Subject Alternative Name: 
                DNS:192.168.70.10
    Signature Algorithm: sha1WithRSAEncryption
        80:f3:30:be:d4:1c:95:88:66:4a:67:0b:57:4c:25:77:3a:12:
        e8:dd:93:ca:c2:05:ba:22:15:da:af:51:78:a6:28:34:32:45:
        a2:d7:9d:68:4c:9f:b6:ee:b1:b4:04:92:b1:6d:5f:4d:7f:0a:
        69:7b:7e:3b:b8:f4:d0:42:66:e4:63:47:26:a5:7a:af:b8:dc:
        86:e8:61:33:c4:55:c5:30:cb:f2:1a:58:8e:f7:73:45:e9:da:
        31:8c:63:2b:23:e6:36:c3:89:a0:c6:49:23:d0:ce:17:7f:44:
        b1:fe:f2:68:f4:18:88:a1:e1:2d:f6:9b:f0:6d:f3:6e:1c:3b:
        c8:0f:4a:c6:f4:c3:b6:9c:d4:ea:1f:1d:9d:56:47:68:bc:22:
        f2:39:61:3c:a7:ee:76:d4:42:1a:2c:9b:32:87:1e:f7:a3:86:
        d9:6d:a4:79:7e:22:87:f2:96:e6:9d:59:10:3b:39:84:59:0e:
        f3:a2:6a:df:7e:49:f3:b7:b2:8f:9c:8f:d7:42:9c:fb:81:b2:
        9e:e2:17:a9:cd:27:18:59:7a:04:7f:1e:ff:de:ae:fb:d0:17:
        00:91:2a:59:c8:ce:77:3f:d9:aa:28:36:72:30:07:db:e0:c1:
        5f:f7:bb:a9:0a:c9:50:a4:4e:30:b7:7f:98:ea:62:d7:c7:c8:
        89:45:80:19
-----BEGIN CERTIFICATE-----
MIIDazCCAlOgAwIBAgIBATANBgkqhkiG9w0BAQUFADBbMQswCQYDVQQGEwJDSDEP
MA0GA1UECAwGWnVyaWNoMQ8wDQYDVQQHDAZadXJpY2gxEDAOBgNVBAoMB2lNb3Zp
ZXMxCzAJBgNVBAsMAkNBMQswCQYDVQQDDAJDQTAeFw0xNzExMjIxMDM0MzhaFw0x
ODExMjIxMDM0MzhaMGExCzAJBgNVBAYTAkNIMQ8wDQYDVQQIDAZadXJpY2gxEDAO
BgNVBAoMB2lNb3ZpZXMxFzAVBgNVBAsMDkFkbWluaXN0cmF0aW9uMRYwFAYDVQQD
DA0xOTIuMTY4LjUxLjE0MIIBIjANBgkqhkiG9w0BAQEFAAOCAQ8AMIIBCgKCAQEA
vTrjYpZi+M5MpA1pzVfpFAn+5mF4ZUPERsi+KHBclSg89gOpfIjNOanBnzDsdpyO
Yg4NCtl9S9OT7RvHqiPFywgJ6YheAt9q8JGeYV6mz73pp3lLPphfCBiRKsNda4dL
mczw+dzRkS5oI/HcnsVY1t5csFzDQSllTTOUyiaAtYuPCLBElXkqPsf9cjCioeyK
4mNG7T3f6pvVql73T51JMuey8FDtnrj2SuapZPEFh2Rc3Vj3lnkwExUEb9UE+0O3
K/65IuImnKu2wBXo26Iri5pxo1J8zrf6gti5w5HH0Mll/wMbO5wI7dM5hgLGT3sH
uv99FaiGY2k0TselD0JLKQIDAQABozQwMjAJBgNVHRMEAjAAMAsGA1UdDwQEAwIF
4DAYBgNVHREEETAPgg0xOTIuMTY4LjcwLjEwMA0GCSqGSIb3DQEBBQUAA4IBAQCA
8zC+1ByViGZKZwtXTCV3OhLo3ZPKwgW6IhXar1F4pig0MkWi151oTJ+27rG0BJKx
bV9Nfwppe347uPTQQmbkY0cmpXqvuNyG6GEzxFXFMMvyGliO93NF6doxjGMrI+Y2
w4mgxkkj0M4Xf0Sx/vJo9BiIoeEt9pvwbfNuHDvID0rG9MO2nNTqHx2dVkdovCLy
OWE8p+521EIaLJsyhx73o4bZbaR5fiKH8pbmnVkQOzmEWQ7zomrffknzt7KPnI/X
Qpz7gbKe4hepzScYWXoEfx7/3q770BcAkSpZyM53P9mqKDZyMAfb4MFf97upCslQ
pE4wt3+Y6mLXx8iJRYAZ
-----END CERTIFICATE-----
