Certificate:
    Data:
        Version: 3 (0x2)
        Serial Number: 1 (0x1)
        Signature Algorithm: sha1WithRSAEncryption
        Issuer: C=CH, ST=Zurich, L=Zurich, O=iMovies, OU=CA, CN=CA
        Validity
            Not Before: Nov 21 20:44:17 2017 GMT
            Not After : Nov 21 20:44:17 2018 GMT
        Subject: C=CH, ST=Zurich, O=iMovies, OU=Administration, CN=192.168.51.14
        Subject Public Key Info:
            Public Key Algorithm: rsaEncryption
            RSA Public Key: (2048 bit)
                Modulus (2048 bit):
                    00:b6:77:7a:07:30:2f:4b:f5:9f:26:d7:5d:82:88:
                    fb:11:83:fe:c9:ce:1c:b5:48:7d:7a:ce:b3:94:ad:
                    a8:88:a5:4d:b3:f3:ec:bd:eb:dc:1e:9b:d9:f2:c7:
                    3e:1e:e6:c1:08:06:9a:48:b8:4e:19:0e:37:03:a5:
                    a2:25:c5:28:60:69:02:03:08:9a:f7:14:b4:73:4e:
                    28:e1:b5:c2:67:73:ac:fb:00:96:f8:84:7f:75:24:
                    a3:ee:7f:e8:94:24:14:c8:23:ae:e1:c0:72:fb:58:
                    50:6e:1d:5f:1b:c9:8c:b0:02:2e:63:07:77:34:ac:
                    06:e8:ae:ed:25:7c:7c:6d:f7:a5:6c:8e:4a:b3:6e:
                    3d:92:ae:76:2a:4f:33:25:1a:95:6e:37:7b:8d:e9:
                    81:dd:05:0e:bc:1f:31:18:90:50:d1:e7:96:5f:72:
                    15:16:de:4a:74:62:86:98:79:1b:31:c8:6a:6f:66:
                    05:88:1e:69:90:e2:0b:cc:cf:a3:85:f6:7f:2d:10:
                    8e:cf:30:ff:19:dd:c0:af:95:fb:17:37:a3:57:21:
                    e4:36:26:37:83:8c:dc:34:2b:67:d3:e3:c7:3a:94:
                    6a:6f:ed:bb:51:cd:4a:d0:d2:04:8f:19:0f:86:02:
                    f2:f7:8e:bb:42:5d:ad:99:83:a6:ec:b6:ac:a4:e5:
                    17:31
                Exponent: 65537 (0x10001)
        X509v3 extensions:
            X509v3 Basic Constraints: 
                CA:FALSE
            X509v3 Key Usage: 
                Digital Signature, Non Repudiation, Key Encipherment
            X509v3 Subject Alternative Name: 
                DNS:192.168.70.10
    Signature Algorithm: sha1WithRSAEncryption
        20:b4:99:55:14:7d:14:13:fb:6f:90:4d:8b:5a:ee:25:a0:35:
        1e:e2:f8:09:74:c4:fe:e8:05:73:6c:57:63:1d:54:91:40:03:
        cf:a2:9c:19:4d:22:f8:d2:d5:a9:48:78:54:4e:40:ee:3d:22:
        9e:35:71:93:df:1b:21:26:6d:6d:60:fa:5b:7e:d7:14:f1:c8:
        30:1d:2f:c1:b0:ad:f9:42:08:30:f0:12:dd:24:8c:72:49:34:
        d8:f0:8e:67:2d:48:3e:13:7e:93:31:15:9a:4f:49:b9:27:3b:
        b9:13:e1:11:df:67:b8:26:20:f9:b2:cf:ee:9d:c4:f0:cb:f6:
        ff:ca:81:ee:c8:92:20:5d:d4:f6:e0:e6:9a:19:6f:f1:79:47:
        76:5d:63:38:0c:e6:44:7d:18:97:b0:27:2f:81:66:a5:5d:ec:
        ed:68:51:7e:64:06:47:a5:d9:aa:8c:8a:07:26:c8:8a:e0:07:
        64:f8:8f:28:9b:37:b4:4d:f3:32:36:ce:e9:65:bb:c7:3b:86:
        21:69:41:b0:12:9d:04:56:42:cc:b8:b0:6a:2c:e1:9c:96:6e:
        9f:07:fd:26:f7:fa:0f:90:51:ca:4e:51:33:56:d6:8f:55:d1:
        d9:9d:8d:8a:7d:87:9a:f8:57:b0:12:6a:24:85:ee:e0:9c:6b:
        96:56:1d:0a
-----BEGIN CERTIFICATE-----
MIIDazCCAlOgAwIBAgIBATANBgkqhkiG9w0BAQUFADBbMQswCQYDVQQGEwJDSDEP
MA0GA1UECAwGWnVyaWNoMQ8wDQYDVQQHDAZadXJpY2gxEDAOBgNVBAoMB2lNb3Zp
ZXMxCzAJBgNVBAsMAkNBMQswCQYDVQQDDAJDQTAeFw0xNzExMjEyMDQ0MTdaFw0x
ODExMjEyMDQ0MTdaMGExCzAJBgNVBAYTAkNIMQ8wDQYDVQQIDAZadXJpY2gxEDAO
BgNVBAoMB2lNb3ZpZXMxFzAVBgNVBAsMDkFkbWluaXN0cmF0aW9uMRYwFAYDVQQD
DA0xOTIuMTY4LjUxLjE0MIIBIjANBgkqhkiG9w0BAQEFAAOCAQ8AMIIBCgKCAQEA
tnd6BzAvS/WfJtddgoj7EYP+yc4ctUh9es6zlK2oiKVNs/PsvevcHpvZ8sc+HubB
CAaaSLhOGQ43A6WiJcUoYGkCAwia9xS0c04o4bXCZ3Os+wCW+IR/dSSj7n/olCQU
yCOu4cBy+1hQbh1fG8mMsAIuYwd3NKwG6K7tJXx8bfelbI5Ks249kq52Kk8zJRqV
bjd7jemB3QUOvB8xGJBQ0eeWX3IVFt5KdGKGmHkbMchqb2YFiB5pkOILzM+jhfZ/
LRCOzzD/Gd3Ar5X7FzejVyHkNiY3g4zcNCtn0+PHOpRqb+27Uc1K0NIEjxkPhgLy
9467Ql2tmYOm7LaspOUXMQIDAQABozQwMjAJBgNVHRMEAjAAMAsGA1UdDwQEAwIF
4DAYBgNVHREEETAPgg0xOTIuMTY4LjcwLjEwMA0GCSqGSIb3DQEBBQUAA4IBAQAg
tJlVFH0UE/tvkE2LWu4loDUe4vgJdMT+6AVzbFdjHVSRQAPPopwZTSL40tWpSHhU
TkDuPSKeNXGT3xshJm1tYPpbftcU8cgwHS/BsK35Qggw8BLdJIxySTTY8I5nLUg+
E36TMRWaT0m5Jzu5E+ER32e4JiD5ss/uncTwy/b/yoHuyJIgXdT24OaaGW/xeUd2
XWM4DOZEfRiXsCcvgWalXeztaFF+ZAZHpdmqjIoHJsiK4Adk+I8omze0TfMyNs7p
ZbvHO4YhaUGwEp0EVkLMuLBqLOGclm6fB/0m9/oPkFHKTlEzVtaPVdHZnY2KfYea
+FewEmokhe7gnGuWVh0K
-----END CERTIFICATE-----
