Certificate:
    Data:
        Version: 3 (0x2)
        Serial Number: 2 (0x2)
        Signature Algorithm: sha1WithRSAEncryption
        Issuer: C=CH, ST=Zurich, L=Zurich, O=iMovies, OU=CA, CN=CA
        Validity
            Not Before: Nov 21 20:46:15 2017 GMT
            Not After : Nov 21 20:46:15 2018 GMT
        Subject: C=CH, ST=Zurich, O=iMovies, OU=Administration, CN=192.168.50.50
        Subject Public Key Info:
            Public Key Algorithm: rsaEncryption
            RSA Public Key: (2048 bit)
                Modulus (2048 bit):
                    00:ca:b6:cc:5c:a8:8d:c8:98:8a:f7:cb:2d:4e:c6:
                    8a:95:99:d6:f8:b9:55:00:c5:a2:f5:72:14:b9:73:
                    72:9c:3f:1f:4d:54:4f:2a:89:cb:6a:93:94:5e:39:
                    8c:ca:43:a8:91:8c:94:d5:5a:ae:d3:fb:23:52:f9:
                    7a:20:55:90:f1:97:9c:44:2e:cc:e1:b6:63:ce:69:
                    14:42:47:8c:d9:33:6d:15:51:26:b3:24:d2:c7:07:
                    98:f5:a0:04:40:b9:75:c1:60:1b:a1:4f:0e:6c:c3:
                    bf:b8:58:8c:9e:49:e1:70:88:c1:60:56:39:76:cb:
                    c4:c2:5d:fa:ce:50:da:15:02:64:62:ee:a6:30:dd:
                    a9:57:69:71:cc:49:60:5a:75:f1:52:96:ee:63:db:
                    9d:1f:be:79:88:0f:2e:ec:34:25:6b:ac:42:ff:e6:
                    b0:fc:b4:c4:a0:5e:75:d6:a3:2c:d1:4b:e5:2c:24:
                    06:30:6f:56:36:6c:6d:5e:d1:5f:4d:91:6e:44:f1:
                    df:ae:0e:bc:f7:74:49:4e:90:2b:29:ed:33:72:af:
                    9f:8c:01:b3:be:b3:c3:46:7e:84:9d:a2:6f:3c:79:
                    41:86:04:90:d5:a4:b5:b3:cb:04:5b:74:c7:98:59:
                    70:1d:89:d3:88:cb:30:93:ed:ef:ce:23:85:b8:b9:
                    d9:b7
                Exponent: 65537 (0x10001)
        X509v3 extensions:
            X509v3 Basic Constraints: 
                CA:FALSE
            Netscape Comment: 
                OpenSSL Generated Certificate
            X509v3 Subject Key Identifier: 
                09:A6:EF:8C:3A:D3:3D:7C:1A:56:BF:13:5F:AF:CE:0B:5B:CD:D0:25
            X509v3 Authority Key Identifier: 
                keyid:C0:2C:B3:C6:96:26:48:D2:12:34:D0:37:AF:84:16:12:5B:FE:91:D7

    Signature Algorithm: sha1WithRSAEncryption
        84:7b:e2:2f:81:2c:36:0f:4d:c4:1f:c3:cc:dc:dc:a0:8d:1c:
        02:72:8d:f0:81:83:65:1f:bb:64:03:97:2e:51:ef:69:4d:f0:
        b8:11:18:a2:97:e4:63:ab:13:c1:42:c8:bb:b4:53:3e:99:44:
        0b:e2:84:3c:3a:b2:97:41:7d:e3:d1:15:b7:c9:7b:a7:d7:36:
        a2:30:cf:ae:c7:05:7e:b2:02:88:4e:7d:1d:5f:a9:98:29:01:
        eb:ff:d4:ad:22:bf:c0:6d:1c:c1:69:54:4a:bc:76:47:25:e9:
        ec:3e:10:b4:c5:19:2f:61:01:61:b5:64:77:99:5d:97:8a:f2:
        bf:2d:95:8f:b7:78:94:e7:eb:53:12:9b:91:f2:9e:ec:92:29:
        57:dd:b3:44:47:84:cc:ef:82:0f:28:ee:4e:bd:44:87:78:6c:
        25:62:66:71:4e:a5:16:36:9a:55:46:8e:86:ed:55:ee:58:7a:
        bd:eb:63:d8:10:e9:19:76:1a:31:10:e2:a7:65:23:2d:cb:b2:
        cd:d6:84:8e:13:aa:b0:f1:4f:8b:ad:9b:2f:25:c8:40:2b:a4:
        62:a2:f0:3f:f8:7b:11:2c:d0:de:53:b3:a3:44:13:2a:9e:46:
        77:1b:07:e1:36:e9:29:30:22:78:07:60:4d:f0:f6:9c:20:54:
        39:e8:c3:7b
-----BEGIN CERTIFICATE-----
MIIDsjCCApqgAwIBAgIBAjANBgkqhkiG9w0BAQUFADBbMQswCQYDVQQGEwJDSDEP
MA0GA1UECAwGWnVyaWNoMQ8wDQYDVQQHDAZadXJpY2gxEDAOBgNVBAoMB2lNb3Zp
ZXMxCzAJBgNVBAsMAkNBMQswCQYDVQQDDAJDQTAeFw0xNzExMjEyMDQ2MTVaFw0x
ODExMjEyMDQ2MTVaMGExCzAJBgNVBAYTAkNIMQ8wDQYDVQQIDAZadXJpY2gxEDAO
BgNVBAoMB2lNb3ZpZXMxFzAVBgNVBAsMDkFkbWluaXN0cmF0aW9uMRYwFAYDVQQD
DA0xOTIuMTY4LjUwLjUwMIIBIjANBgkqhkiG9w0BAQEFAAOCAQ8AMIIBCgKCAQEA
yrbMXKiNyJiK98stTsaKlZnW+LlVAMWi9XIUuXNynD8fTVRPKonLapOUXjmMykOo
kYyU1Vqu0/sjUvl6IFWQ8ZecRC7M4bZjzmkUQkeM2TNtFVEmsyTSxweY9aAEQLl1
wWAboU8ObMO/uFiMnknhcIjBYFY5dsvEwl36zlDaFQJkYu6mMN2pV2lxzElgWnXx
UpbuY9udH755iA8u7DQla6xC/+aw/LTEoF511qMs0UvlLCQGMG9WNmxtXtFfTZFu
RPHfrg6893RJTpArKe0zcq+fjAGzvrPDRn6EnaJvPHlBhgSQ1aS1s8sEW3THmFlw
HYnTiMswk+3vziOFuLnZtwIDAQABo3sweTAJBgNVHRMEAjAAMCwGCWCGSAGG+EIB
DQQfFh1PcGVuU1NMIEdlbmVyYXRlZCBDZXJ0aWZpY2F0ZTAdBgNVHQ4EFgQUCabv
jDrTPXwaVr8TX6/OC1vN0CUwHwYDVR0jBBgwFoAUwCyzxpYmSNISNNA3r4QWElv+
kdcwDQYJKoZIhvcNAQEFBQADggEBAIR74i+BLDYPTcQfw8zc3KCNHAJyjfCBg2Uf
u2QDly5R72lN8LgRGKKX5GOrE8FCyLu0Uz6ZRAvihDw6spdBfePRFbfJe6fXNqIw
z67HBX6yAohOfR1fqZgpAev/1K0iv8BtHMFpVEq8dkcl6ew+ELTFGS9hAWG1ZHeZ
XZeK8r8tlY+3eJTn61MSm5HynuySKVfds0RHhMzvgg8o7k69RId4bCViZnFOpRY2
mlVGjobtVe5Yer3rY9gQ6Rl2GjEQ4qdlIy3Lss3WhI4TqrDxT4utmy8lyEArpGKi
8D/4exEs0N5Ts6NEEyqeRncbB+E26SkwIngHYE3w9pwgVDnow3s=
-----END CERTIFICATE-----
