Certificate:
    Data:
        Version: 3 (0x2)
        Serial Number: 2 (0x2)
        Signature Algorithm: sha1WithRSAEncryption
        Issuer: C=CH, ST=Zurich, L=Zurich, O=iMovies, OU=CA, CN=CA
        Validity
            Not Before: Nov 15 16:44:11 2017 GMT
            Not After : Nov 15 16:44:11 2018 GMT
        Subject: C=CH, ST=Zurich, O=iMovies, OU=Infrastructure, CN=core_ca
        Subject Public Key Info:
            Public Key Algorithm: rsaEncryption
            RSA Public Key: (2048 bit)
                Modulus (2048 bit):
                    00:cf:4f:f2:e8:e6:ee:01:47:fa:11:48:c0:bd:3d:
                    ce:36:54:bc:e9:da:9a:86:7f:50:06:9c:dc:a6:44:
                    ac:4b:d1:b5:51:c0:3d:62:50:46:7a:29:95:42:dc:
                    ca:f3:9b:fd:d9:36:7a:f8:cb:c7:10:79:ea:0a:bf:
                    04:fb:cb:4d:9a:fa:34:41:21:53:e2:2a:8b:67:56:
                    9c:a9:d5:e4:db:ea:db:fc:f3:4f:a9:75:87:d5:49:
                    12:56:23:de:66:c0:44:97:19:c7:b1:3b:3f:15:e0:
                    c0:da:9a:1f:8a:04:4b:2a:55:b1:a0:bd:a6:f8:a1:
                    d6:16:c1:48:fd:a4:02:7e:a7:6f:09:11:d6:d0:bc:
                    93:15:ea:77:b8:e4:3d:87:7a:bc:ad:e6:49:7d:3a:
                    a0:32:90:df:92:0d:56:05:16:03:80:99:aa:df:56:
                    a7:0f:39:28:1f:06:c6:6d:3b:02:ee:aa:16:c7:46:
                    3a:18:42:8d:12:7d:8b:b9:b2:27:d9:54:69:69:76:
                    31:d4:01:f2:a5:3e:a2:ac:33:2d:1f:fa:21:b2:bc:
                    97:b0:4f:c9:da:8e:b9:b0:34:a1:07:9b:69:74:a9:
                    52:61:19:78:2f:f7:fa:c3:04:4c:76:32:88:4c:c8:
                    1c:4a:63:b3:b8:9b:76:45:e3:6c:9f:74:ee:45:97:
                    a1:93
                Exponent: 65537 (0x10001)
        X509v3 extensions:
            X509v3 Basic Constraints: 
                CA:FALSE
            Netscape Comment: 
                OpenSSL Generated Certificate
            X509v3 Subject Key Identifier: 
                9D:F6:97:72:2F:3F:30:6B:C3:81:D2:07:A9:14:64:A6:D6:C8:73:12
            X509v3 Authority Key Identifier: 
                keyid:C0:2C:B3:C6:96:26:48:D2:12:34:D0:37:AF:84:16:12:5B:FE:91:D7

    Signature Algorithm: sha1WithRSAEncryption
        2e:1a:4c:f4:79:f0:08:08:f8:68:e5:db:b6:bc:a6:8c:dd:bb:
        f7:4c:a2:16:d5:92:ef:dd:bb:69:1f:14:36:4c:7b:d8:d0:c9:
        a7:70:24:fc:28:aa:ab:90:86:b9:2c:a2:11:f1:35:d5:d9:fe:
        30:bc:2b:f3:d4:78:47:f9:d1:1f:1a:4a:ca:f6:7d:b6:33:0b:
        be:8e:15:e8:12:30:8a:1b:95:90:ce:58:79:2c:4b:89:6a:5c:
        14:25:5e:89:46:c9:73:fa:81:00:64:80:0e:36:13:d7:0b:13:
        e6:ec:1c:9c:7c:fd:3b:34:bc:1f:0f:44:17:41:c7:48:6d:e0:
        b8:c5:f4:65:88:23:95:d0:2e:94:64:0c:48:fb:40:6b:98:89:
        03:6c:69:bf:da:af:ab:b3:3b:d4:83:57:73:d1:79:2b:e8:6d:
        85:1e:ea:8e:aa:fc:55:c2:ae:bb:59:b4:36:7e:88:cf:e1:61:
        8f:08:9a:bb:6d:96:13:44:82:cf:2e:5d:65:c6:29:3c:ab:01:
        08:1e:99:1b:0b:6b:1f:ec:16:4c:e6:86:a1:0a:14:e9:80:ba:
        05:e7:b7:2b:c3:55:f4:3d:11:97:cf:35:86:28:20:07:33:cf:
        b2:c1:2d:c4:8d:51:8e:0d:c5:2f:41:21:f6:cf:02:18:5f:6f:
        dd:68:6e:97
-----BEGIN CERTIFICATE-----
MIIDrDCCApSgAwIBAgIBAjANBgkqhkiG9w0BAQUFADBbMQswCQYDVQQGEwJDSDEP
MA0GA1UECAwGWnVyaWNoMQ8wDQYDVQQHDAZadXJpY2gxEDAOBgNVBAoMB2lNb3Zp
ZXMxCzAJBgNVBAsMAkNBMQswCQYDVQQDDAJDQTAeFw0xNzExMTUxNjQ0MTFaFw0x
ODExMTUxNjQ0MTFaMFsxCzAJBgNVBAYTAkNIMQ8wDQYDVQQIDAZadXJpY2gxEDAO
BgNVBAoMB2lNb3ZpZXMxFzAVBgNVBAsMDkluZnJhc3RydWN0dXJlMRAwDgYDVQQD
DAdjb3JlX2NhMIIBIjANBgkqhkiG9w0BAQEFAAOCAQ8AMIIBCgKCAQEAz0/y6Obu
AUf6EUjAvT3ONlS86dqahn9QBpzcpkSsS9G1UcA9YlBGeimVQtzK85v92TZ6+MvH
EHnqCr8E+8tNmvo0QSFT4iqLZ1acqdXk2+rb/PNPqXWH1UkSViPeZsBElxnHsTs/
FeDA2pofigRLKlWxoL2m+KHWFsFI/aQCfqdvCRHW0LyTFep3uOQ9h3q8reZJfTqg
MpDfkg1WBRYDgJmq31anDzkoHwbGbTsC7qoWx0Y6GEKNEn2LubIn2VRpaXYx1AHy
pT6irDMtH/ohsryXsE/J2o65sDShB5tpdKlSYRl4L/f6wwRMdjKITMgcSmOzuJt2
ReNsn3TuRZehkwIDAQABo3sweTAJBgNVHRMEAjAAMCwGCWCGSAGG+EIBDQQfFh1P
cGVuU1NMIEdlbmVyYXRlZCBDZXJ0aWZpY2F0ZTAdBgNVHQ4EFgQUnfaXci8/MGvD
gdIHqRRkptbIcxIwHwYDVR0jBBgwFoAUwCyzxpYmSNISNNA3r4QWElv+kdcwDQYJ
KoZIhvcNAQEFBQADggEBAC4aTPR58AgI+Gjl27a8pozdu/dMohbVku/du2kfFDZM
e9jQyadwJPwoqquQhrksohHxNdXZ/jC8K/PUeEf50R8aSsr2fbYzC76OFegSMIob
lZDOWHksS4lqXBQlXolGyXP6gQBkgA42E9cLE+bsHJx8/Ts0vB8PRBdBx0ht4LjF
9GWII5XQLpRkDEj7QGuYiQNsab/ar6uzO9SDV3PReSvobYUe6o6q/FXCrrtZtDZ+
iM/hYY8ImrttlhNEgs8uXWXGKTyrAQgemRsLax/sFkzmhqEKFOmAugXntyvDVfQ9
EZfPNYYoIAczz7LBLcSNUY4NxS9BIfbPAhhfb91obpc=
-----END CERTIFICATE-----
