Certificate:
    Data:
        Version: 3 (0x2)
        Serial Number: 2 (0x2)
        Signature Algorithm: sha1WithRSAEncryption
        Issuer: C=CH, ST=Zurich, L=Zurich, O=iMovies, OU=CA, CN=CA
        Validity
            Not Before: Nov 15 08:55:46 2017 GMT
            Not After : Nov 15 08:55:46 2018 GMT
        Subject: C=CH, ST=Zurich, O=iMovies, OU=Users, CN=ohmy
        Subject Public Key Info:
            Public Key Algorithm: rsaEncryption
            RSA Public Key: (2048 bit)
                Modulus (2048 bit):
                    00:cf:f3:87:aa:f3:f1:29:85:2d:22:41:dc:61:55:
                    c1:12:40:ac:ac:98:03:7d:f3:92:e6:fa:af:07:fa:
                    68:e4:03:02:9f:c2:89:fa:ce:f8:22:44:76:16:d5:
                    c0:c7:8c:5a:3e:ea:e7:21:0d:1f:09:f6:8a:7c:8d:
                    78:c4:62:29:7c:f0:87:28:8c:aa:c4:17:fc:18:09:
                    53:89:c2:8e:5c:d7:87:69:92:22:fd:09:0c:04:bd:
                    5e:98:06:0a:49:5c:24:07:3d:b1:74:78:58:5c:45:
                    0f:19:9c:bb:c8:f5:47:1c:8e:92:d7:22:3b:cf:16:
                    27:6e:a6:9d:a6:ad:d4:13:84:60:50:b8:0b:cf:96:
                    a9:18:54:90:fe:2c:4f:e1:87:4b:0a:9a:07:f4:20:
                    be:f4:77:c7:33:15:b7:bb:47:df:89:cc:95:f9:ba:
                    b5:31:2c:8f:b1:e0:6e:45:c0:b4:77:9c:b2:52:cf:
                    a1:4f:e9:87:04:07:24:9c:49:ad:c7:cb:e5:01:38:
                    a9:e7:1a:1f:15:9d:09:81:0b:13:c2:c7:db:75:2a:
                    a5:86:98:ed:45:7d:9b:cb:5f:02:20:c3:00:c9:54:
                    6a:81:58:69:68:79:d7:d5:91:29:eb:62:d6:3b:02:
                    69:f7:e8:ae:78:d0:19:1a:85:c3:7e:18:cd:bd:41:
                    85:19
                Exponent: 65537 (0x10001)
        X509v3 extensions:
            X509v3 Basic Constraints: 
                CA:FALSE
            Netscape Comment: 
                OpenSSL Generated Certificate
            X509v3 Subject Key Identifier: 
                10:1F:E3:21:EB:28:85:FA:2D:5A:4B:48:EC:C6:82:14:84:FD:AA:F1
            X509v3 Authority Key Identifier: 
                keyid:C0:2C:B3:C6:96:26:48:D2:12:34:D0:37:AF:84:16:12:5B:FE:91:D7

    Signature Algorithm: sha1WithRSAEncryption
        00:64:4b:25:79:88:2d:ed:12:19:59:d2:e9:99:18:0d:9f:b7:
        13:c1:3d:dc:04:48:8c:f4:95:57:70:bb:e8:44:0a:dc:bd:d3:
        b8:cd:28:1c:da:eb:7e:67:2f:73:3c:24:e6:f2:65:b2:33:5f:
        6a:f4:6f:8b:b2:b4:59:90:ec:e8:97:1e:ca:6f:10:28:be:90:
        e0:71:16:e2:4e:3e:88:97:3d:91:64:86:32:51:5b:ad:27:a6:
        bc:5c:84:23:5b:b3:13:37:e7:33:93:05:53:56:ee:91:81:41:
        6b:59:d5:cf:c9:08:dd:0a:a6:69:11:ee:22:9c:24:9a:c7:92:
        7e:94:96:32:c3:04:8f:68:ea:ed:fd:6b:1b:d0:59:3f:07:0c:
        3e:83:7f:3b:2c:7e:0f:31:25:ac:43:24:dc:91:c2:db:93:fc:
        bd:e0:23:86:27:70:77:3b:81:b9:c0:f8:76:6b:81:cc:ad:c6:
        dc:c5:da:53:52:3e:dc:25:ca:2a:86:81:72:e6:46:0b:30:40:
        70:12:46:84:e2:a6:c0:61:f0:1c:35:30:81:d2:26:71:26:b5:
        51:68:5a:12:3f:57:91:b8:ff:c0:86:d5:75:b5:ea:9a:08:00:
        61:5c:82:af:3e:70:56:e7:2e:10:c9:97:d9:66:d4:58:05:6c:
        74:19:4b:4c
-----BEGIN CERTIFICATE-----
MIIDoDCCAoigAwIBAgIBAjANBgkqhkiG9w0BAQUFADBbMQswCQYDVQQGEwJDSDEP
MA0GA1UECAwGWnVyaWNoMQ8wDQYDVQQHDAZadXJpY2gxEDAOBgNVBAoMB2lNb3Zp
ZXMxCzAJBgNVBAsMAkNBMQswCQYDVQQDDAJDQTAeFw0xNzExMTUwODU1NDZaFw0x
ODExMTUwODU1NDZaME8xCzAJBgNVBAYTAkNIMQ8wDQYDVQQIDAZadXJpY2gxEDAO
BgNVBAoMB2lNb3ZpZXMxDjAMBgNVBAsMBVVzZXJzMQ0wCwYDVQQDDARvaG15MIIB
IjANBgkqhkiG9w0BAQEFAAOCAQ8AMIIBCgKCAQEAz/OHqvPxKYUtIkHcYVXBEkCs
rJgDffOS5vqvB/po5AMCn8KJ+s74IkR2FtXAx4xaPurnIQ0fCfaKfI14xGIpfPCH
KIyqxBf8GAlTicKOXNeHaZIi/QkMBL1emAYKSVwkBz2xdHhYXEUPGZy7yPVHHI6S
1yI7zxYnbqadpq3UE4RgULgLz5apGFSQ/ixP4YdLCpoH9CC+9HfHMxW3u0fficyV
+bq1MSyPseBuRcC0d5yyUs+hT+mHBAcknEmtx8vlATip5xofFZ0JgQsTwsfbdSql
hpjtRX2by18CIMMAyVRqgVhpaHnX1ZEp62LWOwJp9+iueNAZGoXDfhjNvUGFGQID
AQABo3sweTAJBgNVHRMEAjAAMCwGCWCGSAGG+EIBDQQfFh1PcGVuU1NMIEdlbmVy
YXRlZCBDZXJ0aWZpY2F0ZTAdBgNVHQ4EFgQUEB/jIesohfotWktI7MaCFIT9qvEw
HwYDVR0jBBgwFoAUwCyzxpYmSNISNNA3r4QWElv+kdcwDQYJKoZIhvcNAQEFBQAD
ggEBAABkSyV5iC3tEhlZ0umZGA2ftxPBPdwESIz0lVdwu+hECty907jNKBza635n
L3M8JObyZbIzX2r0b4uytFmQ7OiXHspvECi+kOBxFuJOPoiXPZFkhjJRW60nprxc
hCNbsxM35zOTBVNW7pGBQWtZ1c/JCN0KpmkR7iKcJJrHkn6UljLDBI9o6u39axvQ
WT8HDD6Dfzssfg8xJaxDJNyRwtuT/L3gI4YncHc7gbnA+HZrgcytxtzF2lNSPtwl
yiqGgXLmRgswQHASRoTipsBh8Bw1MIHSJnEmtVFoWhI/V5G4/8CG1XW16poIAGFc
gq8+cFbnLhDJl9lm1FgFbHQZS0w=
-----END CERTIFICATE-----
