Certificate:
    Data:
        Version: 3 (0x2)
        Serial Number: 3 (0x3)
        Signature Algorithm: sha1WithRSAEncryption
        Issuer: C=CH, ST=Zurich, L=Zurich, O=iMovies, OU=CA, CN=CA
        Validity
            Not Before: Nov 22 10:35:42 2017 GMT
            Not After : Nov 22 10:35:42 2018 GMT
        Subject: C=CH, ST=Zurich, O=iMovies, OU=Administration, CN=192.168.50.31
        Subject Public Key Info:
            Public Key Algorithm: rsaEncryption
            RSA Public Key: (2048 bit)
                Modulus (2048 bit):
                    00:b7:b5:25:9c:d0:8e:e1:d5:d3:4d:82:5a:e0:b0:
                    40:e8:e9:72:60:10:07:38:d3:dd:e1:27:de:a5:79:
                    95:20:09:62:b4:7d:df:48:69:8d:b8:72:b8:0f:d4:
                    6a:fb:03:0e:aa:ff:89:5b:ee:b6:19:0f:fd:33:93:
                    af:13:86:0a:ec:63:f8:67:b0:70:c5:5c:f9:30:21:
                    e1:fa:ff:72:0d:a9:98:08:8a:10:18:18:bf:4d:32:
                    3d:3f:75:04:b4:2a:ef:71:00:46:bf:e9:9e:33:c1:
                    d5:59:87:a9:d4:05:43:4d:f6:5a:eb:64:99:e2:0d:
                    8c:81:c8:f9:92:b0:7e:8c:da:29:f8:ca:f1:bc:3e:
                    af:72:b5:88:26:23:1c:61:53:e9:b7:0f:7a:e2:59:
                    a3:38:0c:5a:04:64:11:a0:72:eb:9b:db:bb:ee:96:
                    7b:1e:13:02:e9:57:09:86:75:4b:ee:67:3a:57:65:
                    cd:30:5e:b9:86:c3:40:f4:72:9a:cf:ca:cd:c5:8e:
                    51:46:58:b2:af:01:9d:fc:c4:81:04:e6:44:cb:18:
                    e0:4c:af:b1:9e:5f:df:fc:ee:7e:8e:27:50:ca:52:
                    d6:e0:f3:6a:b2:5e:7d:d4:3f:75:ca:53:86:37:c7:
                    43:2b:5c:88:6f:70:6b:79:97:9c:c9:75:c9:be:3d:
                    5b:73
                Exponent: 65537 (0x10001)
        X509v3 extensions:
            X509v3 Basic Constraints: 
                CA:FALSE
            Netscape Comment: 
                OpenSSL Generated Certificate
            X509v3 Subject Key Identifier: 
                C0:20:24:94:90:0F:44:A5:73:3B:F0:98:FF:0D:C0:FF:52:A0:6F:C2
            X509v3 Authority Key Identifier: 
                keyid:C0:2C:B3:C6:96:26:48:D2:12:34:D0:37:AF:84:16:12:5B:FE:91:D7

    Signature Algorithm: sha1WithRSAEncryption
        9d:5e:12:bb:c8:92:c7:0b:50:95:18:0d:a4:4d:47:e7:b7:ed:
        6f:b7:25:57:0e:29:5f:10:71:73:30:db:95:8f:b8:54:06:2b:
        e5:f7:a1:c6:1c:5f:01:44:2d:d3:4b:48:9f:4c:c6:b3:d2:75:
        7d:4c:5e:cc:1f:93:57:a3:d0:86:4e:8d:dc:69:5a:03:d7:24:
        64:5f:48:f3:42:37:21:a7:49:c7:b2:39:6a:55:62:83:39:76:
        89:c7:2b:0b:8c:74:a6:47:af:45:f4:64:dc:55:54:d8:d7:d2:
        a7:fd:6f:98:06:64:5d:1d:43:f0:23:c4:de:25:d1:94:57:56:
        6e:a2:0c:35:83:fa:3a:00:f6:d4:db:b8:44:b6:c8:85:1c:5c:
        cc:67:a4:63:86:ec:e3:a3:0c:ca:84:b2:ed:e6:7a:f6:22:7f:
        48:cc:6c:47:e5:dc:ab:4c:34:96:3c:9b:13:06:d8:85:8a:2c:
        c4:ab:59:2f:58:47:c7:27:25:86:dd:0b:6d:b4:c3:1a:53:17:
        43:03:7a:2b:cb:d2:eb:0c:36:c2:57:1a:44:5a:79:9c:f6:21:
        8d:9d:96:09:83:93:8c:99:87:41:8a:f2:db:ec:44:e5:70:34:
        d8:ec:d9:c5:ba:84:64:2c:d2:86:bd:f8:08:99:67:11:82:68:
        c6:be:ae:fd
-----BEGIN CERTIFICATE-----
MIIDsjCCApqgAwIBAgIBAzANBgkqhkiG9w0BAQUFADBbMQswCQYDVQQGEwJDSDEP
MA0GA1UECAwGWnVyaWNoMQ8wDQYDVQQHDAZadXJpY2gxEDAOBgNVBAoMB2lNb3Zp
ZXMxCzAJBgNVBAsMAkNBMQswCQYDVQQDDAJDQTAeFw0xNzExMjIxMDM1NDJaFw0x
ODExMjIxMDM1NDJaMGExCzAJBgNVBAYTAkNIMQ8wDQYDVQQIDAZadXJpY2gxEDAO
BgNVBAoMB2lNb3ZpZXMxFzAVBgNVBAsMDkFkbWluaXN0cmF0aW9uMRYwFAYDVQQD
DA0xOTIuMTY4LjUwLjMxMIIBIjANBgkqhkiG9w0BAQEFAAOCAQ8AMIIBCgKCAQEA
t7UlnNCO4dXTTYJa4LBA6OlyYBAHONPd4SfepXmVIAlitH3fSGmNuHK4D9Rq+wMO
qv+JW+62GQ/9M5OvE4YK7GP4Z7BwxVz5MCHh+v9yDamYCIoQGBi/TTI9P3UEtCrv
cQBGv+meM8HVWYep1AVDTfZa62SZ4g2Mgcj5krB+jNop+MrxvD6vcrWIJiMcYVPp
tw964lmjOAxaBGQRoHLrm9u77pZ7HhMC6VcJhnVL7mc6V2XNMF65hsNA9HKaz8rN
xY5RRliyrwGd/MSBBOZEyxjgTK+xnl/f/O5+jidQylLW4PNqsl591D91ylOGN8dD
K1yIb3BreZecyXXJvj1bcwIDAQABo3sweTAJBgNVHRMEAjAAMCwGCWCGSAGG+EIB
DQQfFh1PcGVuU1NMIEdlbmVyYXRlZCBDZXJ0aWZpY2F0ZTAdBgNVHQ4EFgQUwCAk
lJAPRKVzO/CY/w3A/1Kgb8IwHwYDVR0jBBgwFoAUwCyzxpYmSNISNNA3r4QWElv+
kdcwDQYJKoZIhvcNAQEFBQADggEBAJ1eErvIkscLUJUYDaRNR+e37W+3JVcOKV8Q
cXMw25WPuFQGK+X3ocYcXwFELdNLSJ9MxrPSdX1MXswfk1ej0IZOjdxpWgPXJGRf
SPNCNyGnSceyOWpVYoM5donHKwuMdKZHr0X0ZNxVVNjX0qf9b5gGZF0dQ/AjxN4l
0ZRXVm6iDDWD+joA9tTbuES2yIUcXMxnpGOG7OOjDMqEsu3mevYif0jMbEfl3KtM
NJY8mxMG2IWKLMSrWS9YR8cnJYbdC220wxpTF0MDeivL0usMNsJXGkRaeZz2IY2d
lgmDk4yZh0GK8tvsROVwNNjs2cW6hGQs0oa9+AiZZxGCaMa+rv0=
-----END CERTIFICATE-----
