Certificate:
    Data:
        Version: 3 (0x2)
        Serial Number: 3 (0x3)
        Signature Algorithm: sha1WithRSAEncryption
        Issuer: C=CH, ST=Zurich, L=Zurich, O=iMovies, OU=CA, CN=CA
        Validity
            Not Before: Nov 21 13:53:27 2017 GMT
            Not After : Nov 21 13:53:27 2018 GMT
        Subject: C=CH, ST=Zurich, O=iMovies, OU=Administration, CN=192.168.50.33
        Subject Public Key Info:
            Public Key Algorithm: rsaEncryption
            RSA Public Key: (2048 bit)
                Modulus (2048 bit):
                    00:aa:12:da:b6:f4:1e:7b:de:23:6d:a4:83:33:cf:
                    ab:03:75:a8:3e:ab:87:a2:ba:13:c5:e5:da:85:dc:
                    8c:2c:a2:26:c0:b6:97:df:ca:03:c0:cd:95:67:2f:
                    27:3a:19:67:41:50:8e:a4:3d:80:dd:25:5d:c3:cf:
                    0a:b2:50:63:00:38:b5:c8:86:58:95:87:19:c3:a2:
                    e6:dc:00:33:77:09:86:94:d2:d8:e4:f9:12:22:5e:
                    79:ee:b7:75:79:71:41:03:2c:c8:21:f0:57:bd:78:
                    89:b5:69:cd:8f:37:51:75:29:bf:19:6d:83:2b:6f:
                    24:c8:6a:93:46:a0:3d:39:bf:94:76:d5:9a:cb:0f:
                    60:d0:30:61:1a:33:bb:f4:69:17:b6:09:0e:f5:23:
                    45:6a:7f:40:7c:41:33:86:c0:f2:05:53:2d:0e:20:
                    ac:5d:ac:95:36:44:8f:0d:2b:8f:78:f2:aa:3c:b0:
                    0e:97:2a:19:6f:c6:7c:58:08:bb:d3:83:2f:78:58:
                    92:2d:83:54:fa:14:97:f5:a5:a0:08:0f:8b:b9:b7:
                    d2:c1:7e:9b:66:fe:24:6d:31:9f:5d:cc:f8:30:ed:
                    97:01:65:9e:bc:17:6e:99:db:c7:6d:32:1c:20:e3:
                    79:14:94:66:f1:23:f1:cb:74:af:08:85:c2:a4:5e:
                    e4:e1
                Exponent: 65537 (0x10001)
        X509v3 extensions:
            X509v3 Basic Constraints: 
                CA:FALSE
            Netscape Comment: 
                OpenSSL Generated Certificate
            X509v3 Subject Key Identifier: 
                B5:5F:AE:77:6C:B8:0E:71:AF:9A:66:B1:21:67:CD:05:2E:54:0E:93
            X509v3 Authority Key Identifier: 
                keyid:C0:2C:B3:C6:96:26:48:D2:12:34:D0:37:AF:84:16:12:5B:FE:91:D7

    Signature Algorithm: sha1WithRSAEncryption
        ae:64:7c:2a:76:b2:e0:51:97:13:40:f6:fd:d9:30:d4:31:af:
        58:2d:0f:71:e5:b8:84:69:7e:11:d7:f4:f0:a9:56:17:95:2c:
        6a:30:92:e2:46:55:e9:3b:c3:83:ff:05:c3:20:f2:28:7a:65:
        b5:1a:0e:f5:a8:93:ba:3b:1f:fd:16:80:0f:ec:78:b1:c4:ed:
        1f:93:82:41:7e:ea:0c:8e:ea:e7:88:8d:7d:00:06:66:ba:27:
        3e:19:e2:8f:1d:20:58:01:b9:50:2c:bc:b9:5e:8d:1f:01:70:
        71:ad:c3:87:3e:46:40:d8:99:dc:e6:fb:74:c1:fd:75:a6:7d:
        ef:da:d6:05:96:54:90:70:6a:69:a3:7b:84:37:5f:28:c6:5d:
        bf:f3:d8:2c:e4:a9:41:97:4f:a0:84:d8:c5:60:c8:a4:09:b3:
        0b:25:d6:10:a3:f2:a8:af:fa:ad:73:54:f6:44:16:19:6e:15:
        ce:7f:a4:d3:42:ad:dd:42:68:20:53:2b:78:0f:1d:20:80:04:
        df:8e:e0:e4:e1:64:9f:47:04:33:aa:9f:1f:59:59:4b:f9:ca:
        b0:9d:80:33:c1:1c:91:66:b4:ee:dc:67:ec:e1:6e:4b:0a:a2:
        33:80:61:c9:eb:e1:02:0a:46:2f:6b:5e:05:ed:51:ca:a7:3b:
        d6:43:ee:26
-----BEGIN CERTIFICATE-----
MIIDsjCCApqgAwIBAgIBAzANBgkqhkiG9w0BAQUFADBbMQswCQYDVQQGEwJDSDEP
MA0GA1UECAwGWnVyaWNoMQ8wDQYDVQQHDAZadXJpY2gxEDAOBgNVBAoMB2lNb3Zp
ZXMxCzAJBgNVBAsMAkNBMQswCQYDVQQDDAJDQTAeFw0xNzExMjExMzUzMjdaFw0x
ODExMjExMzUzMjdaMGExCzAJBgNVBAYTAkNIMQ8wDQYDVQQIDAZadXJpY2gxEDAO
BgNVBAoMB2lNb3ZpZXMxFzAVBgNVBAsMDkFkbWluaXN0cmF0aW9uMRYwFAYDVQQD
DA0xOTIuMTY4LjUwLjMzMIIBIjANBgkqhkiG9w0BAQEFAAOCAQ8AMIIBCgKCAQEA
qhLatvQee94jbaSDM8+rA3WoPquHoroTxeXahdyMLKImwLaX38oDwM2VZy8nOhln
QVCOpD2A3SVdw88KslBjADi1yIZYlYcZw6Lm3AAzdwmGlNLY5PkSIl557rd1eXFB
AyzIIfBXvXiJtWnNjzdRdSm/GW2DK28kyGqTRqA9Ob+UdtWayw9g0DBhGjO79GkX
tgkO9SNFan9AfEEzhsDyBVMtDiCsXayVNkSPDSuPePKqPLAOlyoZb8Z8WAi704Mv
eFiSLYNU+hSX9aWgCA+LubfSwX6bZv4kbTGfXcz4MO2XAWWevBdumdvHbTIcION5
FJRm8SPxy3SvCIXCpF7k4QIDAQABo3sweTAJBgNVHRMEAjAAMCwGCWCGSAGG+EIB
DQQfFh1PcGVuU1NMIEdlbmVyYXRlZCBDZXJ0aWZpY2F0ZTAdBgNVHQ4EFgQUtV+u
d2y4DnGvmmaxIWfNBS5UDpMwHwYDVR0jBBgwFoAUwCyzxpYmSNISNNA3r4QWElv+
kdcwDQYJKoZIhvcNAQEFBQADggEBAK5kfCp2suBRlxNA9v3ZMNQxr1gtD3HluIRp
fhHX9PCpVheVLGowkuJGVek7w4P/BcMg8ih6ZbUaDvWok7o7H/0WgA/seLHE7R+T
gkF+6gyO6ueIjX0ABma6Jz4Z4o8dIFgBuVAsvLlejR8BcHGtw4c+RkDYmdzm+3TB
/XWmfe/a1gWWVJBwammje4Q3XyjGXb/z2CzkqUGXT6CE2MVgyKQJswsl1hCj8qiv
+q1zVPZEFhluFc5/pNNCrd1CaCBTK3gPHSCABN+O4OThZJ9HBDOqnx9ZWUv5yrCd
gDPBHJFmtO7cZ+zhbksKojOAYcnr4QIKRi9rXgXtUcqnO9ZD7iY=
-----END CERTIFICATE-----
