Certificate:
    Data:
        Version: 3 (0x2)
        Serial Number: 3 (0x3)
        Signature Algorithm: sha1WithRSAEncryption
        Issuer: C=CH, ST=Zurich, L=Zurich, O=iMovies, OU=CA, CN=CA
        Validity
            Not Before: Nov 21 20:47:05 2017 GMT
            Not After : Nov 21 20:47:05 2018 GMT
        Subject: C=CH, ST=Zurich, O=iMovies, OU=Administration, CN=192.168.50.31
        Subject Public Key Info:
            Public Key Algorithm: rsaEncryption
            RSA Public Key: (2048 bit)
                Modulus (2048 bit):
                    00:ba:30:77:f8:3b:66:53:f4:4a:67:1f:6b:9d:1f:
                    15:84:6c:c3:48:c2:5a:00:7c:49:45:8d:77:83:0b:
                    de:99:a9:13:be:99:3c:19:34:ab:3e:72:70:6f:ba:
                    9b:2e:e3:be:74:4c:11:9a:80:4a:6b:dd:98:98:d5:
                    64:fc:6c:3e:fc:26:b2:03:7e:ff:60:3e:43:45:d7:
                    ce:a7:28:fd:a8:a4:ba:ce:cd:56:8a:09:04:28:60:
                    82:0a:9a:ec:41:1e:43:7f:2f:69:77:28:9a:6f:48:
                    4e:7c:56:b8:2c:6b:19:d0:e2:72:60:10:b3:b5:c2:
                    9c:2b:47:5a:b9:48:47:f2:f9:94:83:00:0e:d9:cc:
                    a8:2f:af:a6:c7:9b:37:b2:2c:c5:c3:78:b1:c4:29:
                    b0:b9:dd:4f:01:33:ea:e8:e9:eb:78:ca:ca:27:b9:
                    83:a6:6f:5e:e3:a8:6c:67:6d:07:11:b2:30:06:59:
                    e2:f1:22:1a:06:c9:c5:96:c6:1f:07:b4:f3:fb:73:
                    30:89:ee:b2:c4:5a:f3:8f:ae:0a:5e:32:34:e4:b1:
                    1a:85:e6:81:e3:26:7b:1f:e5:05:56:6e:3a:9b:e9:
                    da:24:9a:cb:54:2a:1c:48:89:67:4f:a7:41:60:f3:
                    03:d3:19:4d:cd:e5:a2:73:a6:61:ba:c4:49:d7:9f:
                    b5:d3
                Exponent: 65537 (0x10001)
        X509v3 extensions:
            X509v3 Basic Constraints: 
                CA:FALSE
            Netscape Comment: 
                OpenSSL Generated Certificate
            X509v3 Subject Key Identifier: 
                2F:42:C0:C2:78:39:B8:E2:9C:AE:F9:23:CF:E7:71:AB:45:B5:AC:1D
            X509v3 Authority Key Identifier: 
                keyid:C0:2C:B3:C6:96:26:48:D2:12:34:D0:37:AF:84:16:12:5B:FE:91:D7

    Signature Algorithm: sha1WithRSAEncryption
        3a:0f:be:28:7b:a0:f9:72:b2:aa:4d:42:80:93:98:79:44:fd:
        52:47:20:ee:2a:e7:3f:ef:1a:d5:35:29:81:85:46:50:06:e8:
        5d:1b:c3:57:f3:39:14:b8:55:ff:85:e6:00:50:80:e3:58:e6:
        e0:13:7f:f1:c6:69:e0:d2:86:1f:1f:61:26:d4:c9:c1:f9:f6:
        69:a6:0e:8a:36:a2:9f:d4:64:24:68:5b:91:f7:8d:88:e7:54:
        56:a5:c8:43:16:3d:8c:88:d6:12:9b:f8:20:46:54:0d:dc:59:
        e8:20:c3:88:75:d9:f7:52:40:04:3a:84:c7:14:f9:80:37:ae:
        e4:59:76:38:17:3a:4f:ee:14:7e:62:fb:71:28:60:a6:4a:18:
        76:15:10:ce:7f:19:3c:5c:97:4d:9d:de:af:5d:29:15:2f:15:
        ad:60:c8:ac:90:81:26:de:dd:c6:24:c6:03:0e:bb:6d:df:40:
        f6:99:25:73:16:18:7f:fe:3f:71:8c:f6:c0:79:2a:20:8e:19:
        16:b0:1b:6a:ff:a5:cf:8f:ec:ec:98:d5:49:3c:05:97:14:12:
        d0:ef:5a:75:fa:7c:69:e4:22:8b:8b:46:91:7b:5e:15:d8:68:
        7a:ed:c8:3c:61:61:ff:7e:4d:be:4f:a6:34:f0:fc:e2:7f:41:
        c3:f5:a0:8a
-----BEGIN CERTIFICATE-----
MIIDsjCCApqgAwIBAgIBAzANBgkqhkiG9w0BAQUFADBbMQswCQYDVQQGEwJDSDEP
MA0GA1UECAwGWnVyaWNoMQ8wDQYDVQQHDAZadXJpY2gxEDAOBgNVBAoMB2lNb3Zp
ZXMxCzAJBgNVBAsMAkNBMQswCQYDVQQDDAJDQTAeFw0xNzExMjEyMDQ3MDVaFw0x
ODExMjEyMDQ3MDVaMGExCzAJBgNVBAYTAkNIMQ8wDQYDVQQIDAZadXJpY2gxEDAO
BgNVBAoMB2lNb3ZpZXMxFzAVBgNVBAsMDkFkbWluaXN0cmF0aW9uMRYwFAYDVQQD
DA0xOTIuMTY4LjUwLjMxMIIBIjANBgkqhkiG9w0BAQEFAAOCAQ8AMIIBCgKCAQEA
ujB3+DtmU/RKZx9rnR8VhGzDSMJaAHxJRY13gwvemakTvpk8GTSrPnJwb7qbLuO+
dEwRmoBKa92YmNVk/Gw+/CayA37/YD5DRdfOpyj9qKS6zs1WigkEKGCCCprsQR5D
fy9pdyiab0hOfFa4LGsZ0OJyYBCztcKcK0dauUhH8vmUgwAO2cyoL6+mx5s3sizF
w3ixxCmwud1PATPq6OnreMrKJ7mDpm9e46hsZ20HEbIwBlni8SIaBsnFlsYfB7Tz
+3Mwie6yxFrzj64KXjI05LEaheaB4yZ7H+UFVm46m+naJJrLVCocSIlnT6dBYPMD
0xlNzeWic6ZhusRJ15+10wIDAQABo3sweTAJBgNVHRMEAjAAMCwGCWCGSAGG+EIB
DQQfFh1PcGVuU1NMIEdlbmVyYXRlZCBDZXJ0aWZpY2F0ZTAdBgNVHQ4EFgQUL0LA
wng5uOKcrvkjz+dxq0W1rB0wHwYDVR0jBBgwFoAUwCyzxpYmSNISNNA3r4QWElv+
kdcwDQYJKoZIhvcNAQEFBQADggEBADoPvih7oPlysqpNQoCTmHlE/VJHIO4q5z/v
GtU1KYGFRlAG6F0bw1fzORS4Vf+F5gBQgONY5uATf/HGaeDShh8fYSbUycH59mmm
Doo2op/UZCRoW5H3jYjnVFalyEMWPYyI1hKb+CBGVA3cWeggw4h12fdSQAQ6hMcU
+YA3ruRZdjgXOk/uFH5i+3EoYKZKGHYVEM5/GTxcl02d3q9dKRUvFa1gyKyQgSbe
3cYkxgMOu23fQPaZJXMWGH/+P3GM9sB5KiCOGRawG2r/pc+P7OyY1Uk8BZcUEtDv
WnX6fGnkIouLRpF7XhXYaHrtyDxhYf9+Tb5PpjTw/OJ/QcP1oIo=
-----END CERTIFICATE-----
