Certificate:
    Data:
        Version: 3 (0x2)
        Serial Number: 3 (0x3)
        Signature Algorithm: sha1WithRSAEncryption
        Issuer: C=CH, ST=Zurich, L=Zurich, O=iMovies, OU=CA, CN=CA
        Validity
            Not Before: Nov 15 12:12:01 2017 GMT
            Not After : Nov 15 12:12:01 2018 GMT
        Subject: C=CH, ST=Zurich, O=iMovies, OU=Users, CN=ohmy
        Subject Public Key Info:
            Public Key Algorithm: rsaEncryption
            RSA Public Key: (2048 bit)
                Modulus (2048 bit):
                    00:a0:6f:ea:7a:11:df:2b:92:56:49:27:c6:f2:28:
                    60:6b:66:3d:c1:cc:32:3e:cf:54:70:d6:6a:53:b9:
                    e5:74:f0:30:e9:3e:f6:47:ea:e0:16:81:cc:28:94:
                    4d:71:7f:ed:5a:65:dc:7d:c0:c3:77:05:cf:bd:ce:
                    14:2c:fd:4a:34:44:d6:95:0e:2d:15:dd:58:e3:e0:
                    ba:b0:7c:6a:aa:ab:1b:0c:81:8d:6b:25:e5:d3:b5:
                    3b:bf:40:95:a8:63:45:22:1d:c0:c8:1f:a0:06:d9:
                    2d:1b:cc:12:89:b0:b5:5a:ea:02:85:ae:68:67:24:
                    4b:89:48:d5:22:a2:27:e9:68:13:f6:38:76:f7:44:
                    52:d0:67:58:08:cd:8b:0b:02:8d:16:77:4a:fb:fa:
                    c4:41:af:7c:0c:82:4d:ad:4b:65:50:c8:42:58:73:
                    10:8b:b0:05:97:e9:01:91:bf:a8:24:92:6d:40:8a:
                    d9:cd:f7:dc:39:79:1f:75:19:f4:b2:d5:05:4b:84:
                    b4:12:6f:c7:02:f3:b5:18:fd:db:e7:70:8d:3a:4e:
                    97:fe:21:17:a6:28:70:f1:21:58:8f:10:0e:9a:8c:
                    6f:ee:9a:83:70:0e:41:5a:c6:10:6b:16:fd:4b:8f:
                    e3:36:6a:26:f5:f9:dc:9a:78:84:58:df:68:c0:c9:
                    a1:75
                Exponent: 65537 (0x10001)
        X509v3 extensions:
            X509v3 Basic Constraints: 
                CA:FALSE
            Netscape Comment: 
                OpenSSL Generated Certificate
            X509v3 Subject Key Identifier: 
                CF:7A:5A:C7:BD:F5:A4:F4:B8:B5:F1:7A:B1:11:C0:A9:A5:51:69:48
            X509v3 Authority Key Identifier: 
                keyid:C0:2C:B3:C6:96:26:48:D2:12:34:D0:37:AF:84:16:12:5B:FE:91:D7

    Signature Algorithm: sha1WithRSAEncryption
        28:4b:99:e6:e9:df:ad:2b:01:1c:77:74:51:bb:6b:2b:af:1f:
        14:e2:ed:f9:ab:b6:42:5a:4d:fd:e4:7a:54:68:a3:de:bc:bd:
        25:0f:83:3e:f4:b3:b7:bb:8d:a4:ae:ce:44:85:41:74:5f:72:
        e1:bf:6c:49:2f:32:8b:75:bc:69:df:a1:bf:2e:84:50:cf:d6:
        04:e5:5b:ab:2c:15:de:99:b0:06:05:10:b3:a3:31:0f:d0:0f:
        82:76:b2:0a:2d:10:90:cc:f5:f6:a5:c2:24:48:4e:17:0d:75:
        25:3b:15:5d:fb:bc:6c:7a:61:31:8a:a7:40:4a:57:ee:aa:42:
        cc:3f:83:3b:55:52:d0:f0:6f:66:85:75:f2:8e:77:86:b5:1a:
        12:7b:b1:af:12:51:48:f7:b5:2c:6f:d5:41:08:8a:77:b6:37:
        6d:12:7e:16:90:25:e3:13:4e:a4:30:e5:94:24:99:3c:12:b7:
        fa:80:9f:ba:1b:6e:b3:2c:30:8e:7e:21:37:89:c8:5b:bf:ab:
        3b:90:1f:3b:cf:22:30:8b:73:6b:5a:2b:37:dd:1e:ce:eb:4f:
        d7:f0:aa:cf:5f:d4:a3:fb:bd:58:c3:a0:ea:6b:9c:0a:77:64:
        d8:02:e3:eb:e0:95:ad:fc:2b:b2:27:4d:28:48:24:35:ee:ea:
        59:81:24:aa
-----BEGIN CERTIFICATE-----
MIIDoDCCAoigAwIBAgIBAzANBgkqhkiG9w0BAQUFADBbMQswCQYDVQQGEwJDSDEP
MA0GA1UECAwGWnVyaWNoMQ8wDQYDVQQHDAZadXJpY2gxEDAOBgNVBAoMB2lNb3Zp
ZXMxCzAJBgNVBAsMAkNBMQswCQYDVQQDDAJDQTAeFw0xNzExMTUxMjEyMDFaFw0x
ODExMTUxMjEyMDFaME8xCzAJBgNVBAYTAkNIMQ8wDQYDVQQIDAZadXJpY2gxEDAO
BgNVBAoMB2lNb3ZpZXMxDjAMBgNVBAsMBVVzZXJzMQ0wCwYDVQQDDARvaG15MIIB
IjANBgkqhkiG9w0BAQEFAAOCAQ8AMIIBCgKCAQEAoG/qehHfK5JWSSfG8ihga2Y9
wcwyPs9UcNZqU7nldPAw6T72R+rgFoHMKJRNcX/tWmXcfcDDdwXPvc4ULP1KNETW
lQ4tFd1Y4+C6sHxqqqsbDIGNayXl07U7v0CVqGNFIh3AyB+gBtktG8wSibC1WuoC
ha5oZyRLiUjVIqIn6WgT9jh290RS0GdYCM2LCwKNFndK+/rEQa98DIJNrUtlUMhC
WHMQi7AFl+kBkb+oJJJtQIrZzffcOXkfdRn0stUFS4S0Em/HAvO1GP3b53CNOk6X
/iEXpihw8SFYjxAOmoxv7pqDcA5BWsYQaxb9S4/jNmom9fncmniEWN9owMmhdQID
AQABo3sweTAJBgNVHRMEAjAAMCwGCWCGSAGG+EIBDQQfFh1PcGVuU1NMIEdlbmVy
YXRlZCBDZXJ0aWZpY2F0ZTAdBgNVHQ4EFgQUz3pax731pPS4tfF6sRHAqaVRaUgw
HwYDVR0jBBgwFoAUwCyzxpYmSNISNNA3r4QWElv+kdcwDQYJKoZIhvcNAQEFBQAD
ggEBAChLmebp360rARx3dFG7ayuvHxTi7fmrtkJaTf3kelRoo968vSUPgz70s7e7
jaSuzkSFQXRfcuG/bEkvMot1vGnfob8uhFDP1gTlW6ssFd6ZsAYFELOjMQ/QD4J2
sgotEJDM9falwiRIThcNdSU7FV37vGx6YTGKp0BKV+6qQsw/gztVUtDwb2aFdfKO
d4a1GhJ7sa8SUUj3tSxv1UEIine2N20SfhaQJeMTTqQw5ZQkmTwSt/qAn7obbrMs
MI5+ITeJyFu/qzuQHzvPIjCLc2taKzfdHs7rT9fwqs9f1KP7vVjDoOprnAp3ZNgC
4+vgla38K7InTShIJDXu6lmBJKo=
-----END CERTIFICATE-----
