Certificate:
    Data:
        Version: 3 (0x2)
        Serial Number: 4 (0x4)
        Signature Algorithm: sha1WithRSAEncryption
        Issuer: C=CH, ST=Zurich, L=Zurich, O=iMovies, OU=CA, CN=CA
        Validity
            Not Before: Nov 15 16:44:32 2017 GMT
            Not After : Nov 15 16:44:32 2018 GMT
        Subject: C=CH, ST=Zurich, O=iMovies, OU=Infrastructure, CN=firewall
        Subject Public Key Info:
            Public Key Algorithm: rsaEncryption
            RSA Public Key: (2048 bit)
                Modulus (2048 bit):
                    00:c5:7e:9c:65:31:57:e6:80:7a:bb:c7:f7:b4:27:
                    55:31:bd:00:bf:53:ee:c4:65:4e:af:05:5c:b3:26:
                    19:e8:83:a3:61:e7:96:99:b1:5d:cc:3f:91:8c:37:
                    c4:c1:d2:82:ed:26:70:ef:e9:ca:9a:09:4c:9f:2f:
                    90:37:b0:ee:42:6b:57:82:c7:21:20:c1:d7:7c:6a:
                    d9:24:8d:51:64:7c:e2:15:85:ef:2d:8e:99:47:9b:
                    74:ce:63:89:66:b9:27:d5:af:3a:41:0d:0a:da:54:
                    7b:1c:3c:59:14:0a:8c:01:a3:98:5a:44:34:a8:ab:
                    3a:1d:03:69:04:e6:c3:c1:54:15:8a:ca:98:01:9f:
                    37:c6:45:1f:b4:65:c2:93:ab:b1:2d:79:9c:67:b8:
                    3c:17:70:3f:0b:cd:0c:2f:e4:15:57:7d:a0:10:8a:
                    97:66:72:9a:11:db:13:b9:f7:d1:c9:e2:46:22:d2:
                    db:7d:0b:62:05:a6:bc:f1:b3:02:e5:ce:bc:d4:24:
                    90:bb:7a:d8:a5:fb:47:5d:6c:d1:2c:23:02:ba:f7:
                    46:32:21:ef:c8:2f:01:55:ee:fe:31:8e:5b:7c:81:
                    99:86:b6:1f:e2:87:fe:34:ad:ef:96:74:7a:9e:be:
                    1c:78:08:de:c0:a1:80:97:17:4a:26:fb:79:83:50:
                    b4:45
                Exponent: 65537 (0x10001)
        X509v3 extensions:
            X509v3 Basic Constraints: 
                CA:FALSE
            Netscape Comment: 
                OpenSSL Generated Certificate
            X509v3 Subject Key Identifier: 
                0A:6A:4A:12:21:4B:A1:62:F7:77:FD:BA:63:49:08:9A:2E:BC:89:1E
            X509v3 Authority Key Identifier: 
                keyid:C0:2C:B3:C6:96:26:48:D2:12:34:D0:37:AF:84:16:12:5B:FE:91:D7

    Signature Algorithm: sha1WithRSAEncryption
        98:5d:0e:88:0e:3a:a2:8c:23:6e:3a:99:a8:ca:8b:f7:54:2d:
        39:06:88:26:1e:f1:86:b1:2f:20:19:7c:b9:20:75:c8:28:a1:
        08:01:5f:bf:a7:cc:6d:b9:83:bc:20:3e:47:75:a3:3b:d3:af:
        54:b3:a7:78:06:f6:a4:51:0d:bb:9b:16:c6:04:b6:44:e5:00:
        61:13:7d:4e:51:75:59:42:df:cc:50:fd:ff:6c:f9:60:c2:9f:
        a3:2c:8d:70:00:84:bd:ee:b1:e2:e1:8d:21:8c:a7:8f:ca:46:
        6b:e0:46:f6:36:7b:d9:a9:75:f8:d4:fa:10:6d:09:be:7a:7a:
        6f:dd:4a:be:0d:8f:de:e3:8e:b3:04:05:ab:a1:c8:26:ad:50:
        95:05:5b:7a:0c:ef:f4:f3:83:c6:3f:86:9a:6e:53:70:39:d8:
        b3:e2:23:4a:e9:71:65:29:58:ba:1d:eb:00:c4:fe:2a:81:7b:
        fd:25:58:b8:94:0a:55:2f:89:71:2a:60:a4:8f:16:68:71:6a:
        b0:68:c5:fc:4d:4c:5e:41:d9:f7:92:2c:b8:1c:23:8d:d5:7b:
        38:ff:2f:b8:e9:ce:74:2f:e1:47:3c:5d:c1:02:96:b9:64:4a:
        e6:3c:35:bb:76:d0:47:c1:ca:63:a9:64:a3:a2:bf:69:4f:7c:
        d5:bd:5e:5d
-----BEGIN CERTIFICATE-----
MIIDrTCCApWgAwIBAgIBBDANBgkqhkiG9w0BAQUFADBbMQswCQYDVQQGEwJDSDEP
MA0GA1UECAwGWnVyaWNoMQ8wDQYDVQQHDAZadXJpY2gxEDAOBgNVBAoMB2lNb3Zp
ZXMxCzAJBgNVBAsMAkNBMQswCQYDVQQDDAJDQTAeFw0xNzExMTUxNjQ0MzJaFw0x
ODExMTUxNjQ0MzJaMFwxCzAJBgNVBAYTAkNIMQ8wDQYDVQQIDAZadXJpY2gxEDAO
BgNVBAoMB2lNb3ZpZXMxFzAVBgNVBAsMDkluZnJhc3RydWN0dXJlMREwDwYDVQQD
DAhmaXJld2FsbDCCASIwDQYJKoZIhvcNAQEBBQADggEPADCCAQoCggEBAMV+nGUx
V+aAervH97QnVTG9AL9T7sRlTq8FXLMmGeiDo2HnlpmxXcw/kYw3xMHSgu0mcO/p
ypoJTJ8vkDew7kJrV4LHISDB13xq2SSNUWR84hWF7y2OmUebdM5jiWa5J9WvOkEN
CtpUexw8WRQKjAGjmFpENKirOh0DaQTmw8FUFYrKmAGfN8ZFH7RlwpOrsS15nGe4
PBdwPwvNDC/kFVd9oBCKl2ZymhHbE7n30cniRiLS230LYgWmvPGzAuXOvNQkkLt6
2KX7R11s0SwjArr3RjIh78gvAVXu/jGOW3yBmYa2H+KH/jSt75Z0ep6+HHgI3sCh
gJcXSib7eYNQtEUCAwEAAaN7MHkwCQYDVR0TBAIwADAsBglghkgBhvhCAQ0EHxYd
T3BlblNTTCBHZW5lcmF0ZWQgQ2VydGlmaWNhdGUwHQYDVR0OBBYEFApqShIhS6Fi
93f9umNJCJouvIkeMB8GA1UdIwQYMBaAFMAss8aWJkjSEjTQN6+EFhJb/pHXMA0G
CSqGSIb3DQEBBQUAA4IBAQCYXQ6IDjqijCNuOpmoyov3VC05BogmHvGGsS8gGXy5
IHXIKKEIAV+/p8xtuYO8ID5HdaM7069Us6d4BvakUQ27mxbGBLZE5QBhE31OUXVZ
Qt/MUP3/bPlgwp+jLI1wAIS97rHi4Y0hjKePykZr4Eb2NnvZqXX41PoQbQm+enpv
3Uq+DY/e446zBAWrocgmrVCVBVt6DO/084PGP4aablNwOdiz4iNK6XFlKVi6HesA
xP4qgXv9JVi4lApVL4lxKmCkjxZocWqwaMX8TUxeQdn3kiy4HCON1Xs4/y+46c50
L+FHPF3BApa5ZErmPDW7dtBHwcpjqWSjor9pT3zVvV5d
-----END CERTIFICATE-----
