Certificate:
    Data:
        Version: 3 (0x2)
        Serial Number: 4 (0x4)
        Signature Algorithm: sha1WithRSAEncryption
        Issuer: C=CH, ST=Zurich, L=Zurich, O=iMovies, OU=CA, CN=CA
        Validity
            Not Before: Nov 21 20:47:10 2017 GMT
            Not After : Nov 21 20:47:10 2018 GMT
        Subject: C=CH, ST=Zurich, O=iMovies, OU=Administration, CN=192.168.50.33
        Subject Public Key Info:
            Public Key Algorithm: rsaEncryption
            RSA Public Key: (2048 bit)
                Modulus (2048 bit):
                    00:e2:2f:93:ac:6c:7a:8c:49:de:83:0a:a2:26:8c:
                    0d:a2:c2:2c:68:4d:96:8d:3a:00:a9:dd:73:7b:1e:
                    99:a0:4b:69:80:22:93:8d:01:ae:c2:4a:cc:cc:55:
                    85:82:9a:d3:48:1d:05:14:e0:92:51:da:fe:4f:87:
                    f9:7c:c1:82:c3:ca:6d:7b:be:cf:46:fa:dd:3f:4a:
                    40:03:42:f0:4c:21:53:08:00:c9:16:06:f1:d9:86:
                    c6:37:67:2a:5b:9c:46:c0:cf:9a:35:63:ad:39:d7:
                    fe:74:c2:00:cc:6b:cf:cc:62:1c:34:24:52:26:14:
                    5a:c8:1d:2f:1b:e3:56:54:a8:82:10:3c:6e:22:5a:
                    7c:ae:e8:a1:92:cb:97:3d:1e:2b:eb:7a:a5:93:fb:
                    8a:f6:4e:b1:92:52:d8:96:f4:46:d2:11:f0:19:f6:
                    87:dd:2e:5e:3c:fa:17:7a:7c:3d:a3:e0:31:1c:c2:
                    2d:43:a0:c4:9a:df:e1:99:77:df:6f:e2:19:e3:06:
                    42:8f:6b:3e:38:22:6d:29:6c:fd:b5:17:83:cf:57:
                    80:dc:6e:6d:97:2d:cd:50:25:60:ad:a2:84:c9:cc:
                    7b:45:9a:b2:e4:58:b2:94:27:b5:07:ca:1e:ae:95:
                    0d:4a:35:a8:db:9f:88:c9:cc:80:48:fa:ca:28:47:
                    df:9d
                Exponent: 65537 (0x10001)
        X509v3 extensions:
            X509v3 Basic Constraints: 
                CA:FALSE
            Netscape Comment: 
                OpenSSL Generated Certificate
            X509v3 Subject Key Identifier: 
                88:BD:37:1C:B4:EE:52:D9:55:59:C3:56:FB:BD:99:E0:6F:4B:98:73
            X509v3 Authority Key Identifier: 
                keyid:C0:2C:B3:C6:96:26:48:D2:12:34:D0:37:AF:84:16:12:5B:FE:91:D7

    Signature Algorithm: sha1WithRSAEncryption
        12:6d:fa:8e:6c:66:1b:47:4c:e5:1e:fd:9b:f3:27:a6:1e:02:
        d1:20:3b:f8:f5:c7:b4:81:d8:4c:8f:69:68:01:7c:ff:ab:27:
        54:e9:d9:c7:15:94:08:78:3e:52:d9:2b:a2:a4:56:e2:8d:eb:
        62:b0:60:fa:24:15:2e:7e:c8:e5:87:4b:ef:c7:4d:18:57:9b:
        96:c1:a7:91:6f:7a:58:90:36:7a:d1:65:7e:26:29:28:1c:a1:
        ae:7c:e4:3b:86:f8:02:df:dc:18:e4:0f:be:be:4e:6f:6c:a6:
        2d:1c:e4:bb:2b:3d:00:13:30:54:53:d6:9e:33:14:a1:38:ab:
        ae:ae:8d:f2:b2:61:f8:12:e2:e4:2b:1e:f8:9a:cc:56:29:51:
        61:4f:82:31:5e:8d:fb:e8:5e:b5:27:6c:de:8b:b5:57:8b:65:
        c7:ff:cf:bb:43:1c:84:c1:7a:50:37:c7:bc:96:38:c7:0b:65:
        95:4b:1c:f1:b8:9c:6f:a9:de:d6:c6:6a:e5:64:6f:21:e2:6d:
        67:39:f0:ab:92:58:dd:ba:7b:37:43:11:5f:a5:1f:5c:ba:b3:
        1a:f9:d9:a6:5a:f7:e9:cc:06:e5:90:e9:cc:cd:72:f3:6d:db:
        97:2b:80:f2:1c:3b:93:be:5a:cd:8c:e3:42:fa:d1:e2:02:3f:
        e7:5e:76:2f
-----BEGIN CERTIFICATE-----
MIIDsjCCApqgAwIBAgIBBDANBgkqhkiG9w0BAQUFADBbMQswCQYDVQQGEwJDSDEP
MA0GA1UECAwGWnVyaWNoMQ8wDQYDVQQHDAZadXJpY2gxEDAOBgNVBAoMB2lNb3Zp
ZXMxCzAJBgNVBAsMAkNBMQswCQYDVQQDDAJDQTAeFw0xNzExMjEyMDQ3MTBaFw0x
ODExMjEyMDQ3MTBaMGExCzAJBgNVBAYTAkNIMQ8wDQYDVQQIDAZadXJpY2gxEDAO
BgNVBAoMB2lNb3ZpZXMxFzAVBgNVBAsMDkFkbWluaXN0cmF0aW9uMRYwFAYDVQQD
DA0xOTIuMTY4LjUwLjMzMIIBIjANBgkqhkiG9w0BAQEFAAOCAQ8AMIIBCgKCAQEA
4i+TrGx6jEnegwqiJowNosIsaE2WjToAqd1zex6ZoEtpgCKTjQGuwkrMzFWFgprT
SB0FFOCSUdr+T4f5fMGCw8pte77PRvrdP0pAA0LwTCFTCADJFgbx2YbGN2cqW5xG
wM+aNWOtOdf+dMIAzGvPzGIcNCRSJhRayB0vG+NWVKiCEDxuIlp8ruihksuXPR4r
63qlk/uK9k6xklLYlvRG0hHwGfaH3S5ePPoXenw9o+AxHMItQ6DEmt/hmXffb+IZ
4wZCj2s+OCJtKWz9tReDz1eA3G5tly3NUCVgraKEycx7RZqy5FiylCe1B8oerpUN
SjWo25+IycyASPrKKEffnQIDAQABo3sweTAJBgNVHRMEAjAAMCwGCWCGSAGG+EIB
DQQfFh1PcGVuU1NMIEdlbmVyYXRlZCBDZXJ0aWZpY2F0ZTAdBgNVHQ4EFgQUiL03
HLTuUtlVWcNW+72Z4G9LmHMwHwYDVR0jBBgwFoAUwCyzxpYmSNISNNA3r4QWElv+
kdcwDQYJKoZIhvcNAQEFBQADggEBABJt+o5sZhtHTOUe/ZvzJ6YeAtEgO/j1x7SB
2EyPaWgBfP+rJ1Tp2ccVlAh4PlLZK6KkVuKN62KwYPokFS5+yOWHS+/HTRhXm5bB
p5FveliQNnrRZX4mKSgcoa585DuG+ALf3BjkD76+Tm9spi0c5LsrPQATMFRT1p4z
FKE4q66ujfKyYfgS4uQrHviazFYpUWFPgjFejfvoXrUnbN6LtVeLZcf/z7tDHITB
elA3x7yWOMcLZZVLHPG4nG+p3tbGauVkbyHibWc58KuSWN26ezdDEV+lH1y6sxr5
2aZa9+nMBuWQ6czNcvNt25crgPIcO5O+Ws2M40L60eICP+dedi8=
-----END CERTIFICATE-----
