Certificate:
    Data:
        Version: 3 (0x2)
        Serial Number: 4 (0x4)
        Signature Algorithm: sha1WithRSAEncryption
        Issuer: C=CH, ST=Zurich, L=Zurich, O=iMovies, OU=CA, CN=CA
        Validity
            Not Before: Nov 22 10:35:46 2017 GMT
            Not After : Nov 22 10:35:46 2018 GMT
        Subject: C=CH, ST=Zurich, O=iMovies, OU=Administration, CN=192.168.50.33
        Subject Public Key Info:
            Public Key Algorithm: rsaEncryption
            RSA Public Key: (2048 bit)
                Modulus (2048 bit):
                    00:ab:31:ae:8b:ad:62:32:6d:23:4d:80:35:6c:9e:
                    09:00:1a:2d:4e:82:d3:9f:df:e5:05:0a:c2:3c:1f:
                    b6:ae:8c:82:38:e6:84:6b:7a:fd:5b:34:93:4a:15:
                    91:91:72:c6:81:9d:e3:ba:3f:05:6a:92:6a:49:3c:
                    9f:98:b7:7b:fc:fc:dc:99:28:3b:b6:c4:d5:f6:f6:
                    49:a5:eb:04:91:a5:1f:92:cc:68:4f:a5:e5:fc:e2:
                    4b:e3:2b:8a:b3:fa:02:7c:53:89:de:77:e3:c0:6a:
                    e4:35:71:1c:1f:5b:12:0e:a6:17:93:d4:65:fe:cd:
                    50:9f:18:e0:82:01:05:c5:d3:f7:15:26:6f:c7:61:
                    e8:fe:23:86:9c:e1:4a:56:4b:09:20:b7:05:ee:6d:
                    d6:ec:e2:63:4a:c5:42:6c:ec:fc:76:46:92:56:7a:
                    6f:21:97:86:fd:59:01:1f:e4:48:58:69:d8:ad:fb:
                    d6:08:dc:53:ea:ca:d9:19:d3:10:73:b6:2f:fe:32:
                    73:6a:8c:e0:2c:e0:c1:47:ac:1f:1d:ff:11:ee:ce:
                    5f:c9:d8:71:f5:8f:88:42:db:d4:d4:b6:d0:e1:73:
                    19:86:2e:99:c9:f2:a1:44:0f:fb:18:73:4d:6d:3b:
                    b5:a1:8f:1b:27:e4:0f:ab:07:73:da:bc:33:93:b2:
                    9b:63
                Exponent: 65537 (0x10001)
        X509v3 extensions:
            X509v3 Basic Constraints: 
                CA:FALSE
            Netscape Comment: 
                OpenSSL Generated Certificate
            X509v3 Subject Key Identifier: 
                BC:DD:D0:45:1B:A8:51:00:C1:18:C7:BB:16:E4:45:1C:3D:3A:28:39
            X509v3 Authority Key Identifier: 
                keyid:C0:2C:B3:C6:96:26:48:D2:12:34:D0:37:AF:84:16:12:5B:FE:91:D7

    Signature Algorithm: sha1WithRSAEncryption
        49:0b:f0:fe:35:f2:e2:8f:a9:dd:9e:23:5c:36:ff:bb:49:a5:
        ea:14:be:10:5b:60:fc:b3:c7:3f:13:f1:e6:18:93:2f:7a:df:
        4f:44:b0:97:7a:7e:a4:50:3c:04:e3:c6:55:96:19:11:dd:b1:
        2c:1a:25:e9:0d:6d:f3:ef:91:19:77:dd:48:33:e7:68:b7:92:
        40:82:84:84:88:46:7d:81:8f:e1:e4:36:a1:d5:56:6c:cc:58:
        f4:8e:10:76:f5:27:88:bc:8e:82:77:0e:31:d6:88:eb:67:27:
        7f:79:1e:7a:41:94:26:43:66:31:eb:88:59:83:23:2b:4e:f6:
        5a:b5:8b:de:9a:66:7b:29:94:a2:41:21:d6:dc:c5:ff:69:79:
        e8:95:35:60:34:4a:21:60:ea:24:17:93:b8:96:2e:da:a3:4d:
        b2:cb:40:b7:8d:ab:d8:e2:40:30:4d:85:38:02:82:c3:71:2d:
        d7:15:30:2d:0c:5a:53:ac:e1:5d:ef:be:04:c3:ef:33:24:c5:
        ba:25:df:34:25:c4:64:bc:10:8d:e5:07:e4:3c:49:03:92:02:
        64:b8:23:ac:a6:bd:14:61:d6:b6:85:d6:50:cb:54:1d:11:51:
        9a:ab:1d:37:37:18:d3:32:08:42:4e:0b:c6:62:a0:77:db:49:
        12:ec:34:49
-----BEGIN CERTIFICATE-----
MIIDsjCCApqgAwIBAgIBBDANBgkqhkiG9w0BAQUFADBbMQswCQYDVQQGEwJDSDEP
MA0GA1UECAwGWnVyaWNoMQ8wDQYDVQQHDAZadXJpY2gxEDAOBgNVBAoMB2lNb3Zp
ZXMxCzAJBgNVBAsMAkNBMQswCQYDVQQDDAJDQTAeFw0xNzExMjIxMDM1NDZaFw0x
ODExMjIxMDM1NDZaMGExCzAJBgNVBAYTAkNIMQ8wDQYDVQQIDAZadXJpY2gxEDAO
BgNVBAoMB2lNb3ZpZXMxFzAVBgNVBAsMDkFkbWluaXN0cmF0aW9uMRYwFAYDVQQD
DA0xOTIuMTY4LjUwLjMzMIIBIjANBgkqhkiG9w0BAQEFAAOCAQ8AMIIBCgKCAQEA
qzGui61iMm0jTYA1bJ4JABotToLTn9/lBQrCPB+2royCOOaEa3r9WzSTShWRkXLG
gZ3juj8FapJqSTyfmLd7/PzcmSg7tsTV9vZJpesEkaUfksxoT6Xl/OJL4yuKs/oC
fFOJ3nfjwGrkNXEcH1sSDqYXk9Rl/s1QnxjgggEFxdP3FSZvx2Ho/iOGnOFKVksJ
ILcF7m3W7OJjSsVCbOz8dkaSVnpvIZeG/VkBH+RIWGnYrfvWCNxT6srZGdMQc7Yv
/jJzaozgLODBR6wfHf8R7s5fydhx9Y+IQtvU1LbQ4XMZhi6ZyfKhRA/7GHNNbTu1
oY8bJ+QPqwdz2rwzk7KbYwIDAQABo3sweTAJBgNVHRMEAjAAMCwGCWCGSAGG+EIB
DQQfFh1PcGVuU1NMIEdlbmVyYXRlZCBDZXJ0aWZpY2F0ZTAdBgNVHQ4EFgQUvN3Q
RRuoUQDBGMe7FuRFHD06KDkwHwYDVR0jBBgwFoAUwCyzxpYmSNISNNA3r4QWElv+
kdcwDQYJKoZIhvcNAQEFBQADggEBAEkL8P418uKPqd2eI1w2/7tJpeoUvhBbYPyz
xz8T8eYYky96309EsJd6fqRQPATjxlWWGRHdsSwaJekNbfPvkRl33Ugz52i3kkCC
hISIRn2Bj+HkNqHVVmzMWPSOEHb1J4i8joJ3DjHWiOtnJ395HnpBlCZDZjHriFmD
IytO9lq1i96aZnsplKJBIdbcxf9peeiVNWA0SiFg6iQXk7iWLtqjTbLLQLeNq9ji
QDBNhTgCgsNxLdcVMC0MWlOs4V3vvgTD7zMkxbol3zQlxGS8EI3lB+Q8SQOSAmS4
I6ymvRRh1raF1lDLVB0RUZqrHTc3GNMyCEJOC8ZioHfbSRLsNEk=
-----END CERTIFICATE-----
