Certificate:
    Data:
        Version: 3 (0x2)
        Serial Number: 4 (0x4)
        Signature Algorithm: sha1WithRSAEncryption
        Issuer: C=CH, ST=Zurich, L=Zurich, O=iMovies, OU=CA, CN=CA
        Validity
            Not Before: Nov 15 13:16:26 2017 GMT
            Not After : Nov 15 13:16:26 2018 GMT
        Subject: C=CH, ST=Zurich, O=iMovies, OU=Users, CN=ohmy
        Subject Public Key Info:
            Public Key Algorithm: rsaEncryption
            RSA Public Key: (2048 bit)
                Modulus (2048 bit):
                    00:d0:1d:d4:c0:20:65:7b:6a:c7:80:3e:3e:d1:d8:
                    39:1b:30:7b:b9:b5:a6:54:57:58:b8:04:96:af:1e:
                    98:5f:d2:cb:3e:70:4a:2b:34:c6:14:fe:db:c3:47:
                    f5:e6:33:ef:83:94:eb:c5:9a:6d:d4:5e:ed:6f:c6:
                    36:91:dc:53:1b:eb:96:36:a2:f7:5e:2f:b2:82:02:
                    7a:28:b5:57:eb:b3:d7:21:4f:0d:9f:31:89:5e:bb:
                    7f:dc:76:d5:04:da:a2:5d:0b:35:8e:1a:c8:aa:3e:
                    3a:10:02:df:d0:d7:47:11:69:70:e5:d6:a0:1a:a4:
                    e2:bc:6d:91:7f:41:e0:35:65:05:67:7f:db:be:59:
                    85:1e:ea:3e:23:47:7c:64:18:8c:9a:af:09:6c:f7:
                    75:6d:47:6d:69:2d:68:28:9d:72:45:30:cd:45:b5:
                    9a:e9:e7:7d:2d:9b:15:63:55:65:f9:0f:66:e9:20:
                    96:6d:e6:2f:9f:1d:82:4b:42:68:78:69:dc:36:2e:
                    b1:e4:c9:5b:cf:c4:55:e5:27:09:48:93:45:a6:91:
                    7a:de:80:8f:85:5a:7f:96:97:63:d2:3b:d4:ca:10:
                    0e:2c:8a:8a:b5:63:45:b6:41:28:fc:9c:f4:12:62:
                    3f:40:86:56:6a:af:8a:79:58:56:fa:9b:63:14:c9:
                    81:e5
                Exponent: 65537 (0x10001)
        X509v3 extensions:
            X509v3 Basic Constraints: 
                CA:FALSE
            Netscape Comment: 
                OpenSSL Generated Certificate
            X509v3 Subject Key Identifier: 
                4B:8E:AA:D2:52:B8:EC:F0:82:C9:9C:32:66:22:6E:D7:B1:70:F3:F0
            X509v3 Authority Key Identifier: 
                keyid:C0:2C:B3:C6:96:26:48:D2:12:34:D0:37:AF:84:16:12:5B:FE:91:D7

    Signature Algorithm: sha1WithRSAEncryption
        47:0a:ca:ad:d3:18:e7:ec:71:e3:6a:5a:74:e2:20:a3:ce:15:
        ca:38:da:c0:70:f8:b4:d5:e7:10:30:1a:8c:28:47:3a:eb:69:
        82:19:cb:91:37:9f:bb:99:6b:09:de:05:8b:89:58:c6:f2:ac:
        e6:b1:d4:5f:51:ac:a9:25:59:77:13:9c:1e:6e:a1:be:f7:ff:
        7f:a8:e1:1d:34:fa:b7:21:0e:55:72:ba:dd:45:17:02:31:55:
        24:77:e5:2f:7e:84:f9:d4:d2:7f:83:08:6f:f8:a7:4f:17:58:
        c9:df:22:a3:cf:fb:da:74:6f:60:3c:e4:0d:96:86:1b:b0:1f:
        96:f1:4b:cd:5b:e8:ea:34:16:26:b8:1b:27:3d:90:7c:55:13:
        c8:75:11:54:ce:81:e0:99:1e:23:35:1d:e9:f7:3c:e1:19:a4:
        81:8e:65:ec:71:7b:82:bc:34:c4:ab:76:78:d8:28:6c:60:4e:
        fa:8c:0e:f5:79:43:21:3e:c8:df:96:62:ee:3f:e2:02:69:14:
        52:c4:fa:a1:76:be:d7:5d:67:86:6c:b6:d1:96:84:bc:48:6a:
        67:06:1d:de:de:a4:a8:b5:0e:66:42:26:55:74:cf:bd:64:c6:
        c6:43:84:a5:bf:43:ab:02:a9:cb:9f:27:3f:89:35:7b:6d:9a:
        4b:78:f0:d9
-----BEGIN CERTIFICATE-----
MIIDoDCCAoigAwIBAgIBBDANBgkqhkiG9w0BAQUFADBbMQswCQYDVQQGEwJDSDEP
MA0GA1UECAwGWnVyaWNoMQ8wDQYDVQQHDAZadXJpY2gxEDAOBgNVBAoMB2lNb3Zp
ZXMxCzAJBgNVBAsMAkNBMQswCQYDVQQDDAJDQTAeFw0xNzExMTUxMzE2MjZaFw0x
ODExMTUxMzE2MjZaME8xCzAJBgNVBAYTAkNIMQ8wDQYDVQQIDAZadXJpY2gxEDAO
BgNVBAoMB2lNb3ZpZXMxDjAMBgNVBAsMBVVzZXJzMQ0wCwYDVQQDDARvaG15MIIB
IjANBgkqhkiG9w0BAQEFAAOCAQ8AMIIBCgKCAQEA0B3UwCBle2rHgD4+0dg5GzB7
ubWmVFdYuASWrx6YX9LLPnBKKzTGFP7bw0f15jPvg5TrxZpt1F7tb8Y2kdxTG+uW
NqL3Xi+yggJ6KLVX67PXIU8NnzGJXrt/3HbVBNqiXQs1jhrIqj46EALf0NdHEWlw
5dagGqTivG2Rf0HgNWUFZ3/bvlmFHuo+I0d8ZBiMmq8JbPd1bUdtaS1oKJ1yRTDN
RbWa6ed9LZsVY1Vl+Q9m6SCWbeYvnx2CS0JoeGncNi6x5Mlbz8RV5ScJSJNFppF6
3oCPhVp/lpdj0jvUyhAOLIqKtWNFtkEo/Jz0EmI/QIZWaq+KeVhW+ptjFMmB5QID
AQABo3sweTAJBgNVHRMEAjAAMCwGCWCGSAGG+EIBDQQfFh1PcGVuU1NMIEdlbmVy
YXRlZCBDZXJ0aWZpY2F0ZTAdBgNVHQ4EFgQUS46q0lK47PCCyZwyZiJu17Fw8/Aw
HwYDVR0jBBgwFoAUwCyzxpYmSNISNNA3r4QWElv+kdcwDQYJKoZIhvcNAQEFBQAD
ggEBAEcKyq3TGOfsceNqWnTiIKPOFco42sBw+LTV5xAwGowoRzrraYIZy5E3n7uZ
awneBYuJWMbyrOax1F9RrKklWXcTnB5uob73/3+o4R00+rchDlVyut1FFwIxVSR3
5S9+hPnU0n+DCG/4p08XWMnfIqPP+9p0b2A85A2WhhuwH5bxS81b6Oo0Fia4Gyc9
kHxVE8h1EVTOgeCZHiM1Hen3POEZpIGOZexxe4K8NMSrdnjYKGxgTvqMDvV5QyE+
yN+WYu4/4gJpFFLE+qF2vtddZ4ZsttGWhLxIamcGHd7epKi1DmZCJlV0z71kxsZD
hKW/Q6sCqcufJz+JNXttmkt48Nk=
-----END CERTIFICATE-----
