Certificate:
    Data:
        Version: 3 (0x2)
        Serial Number: 5 (0x5)
        Signature Algorithm: sha1WithRSAEncryption
        Issuer: C=CH, ST=Zurich, L=Zurich, O=iMovies, OU=CA, CN=CA
        Validity
            Not Before: Nov 21 20:47:19 2017 GMT
            Not After : Nov 21 20:47:19 2018 GMT
        Subject: C=CH, ST=Zurich, O=iMovies, OU=Administration, CN=ca_admin
        Subject Public Key Info:
            Public Key Algorithm: rsaEncryption
            RSA Public Key: (2048 bit)
                Modulus (2048 bit):
                    00:ae:cf:4b:cc:4a:79:49:a1:4b:b5:86:c8:cf:3c:
                    69:af:49:15:1c:c4:ce:1d:a9:7a:3f:82:b7:81:49:
                    74:9a:ce:6f:ef:99:9c:1e:4e:51:69:e2:ae:dd:c5:
                    e5:08:41:75:df:34:3e:80:39:86:e5:54:75:8a:af:
                    a4:4b:a3:ac:54:20:af:c4:f6:4f:01:ae:09:0a:89:
                    94:a0:8c:cc:d6:19:9f:df:62:26:50:d7:0b:76:f9:
                    e6:ae:2b:f7:93:02:3e:b9:18:e7:8d:bb:df:fe:76:
                    20:b3:f8:23:ba:e3:c0:0c:5c:8c:6e:76:1c:f5:3a:
                    af:b3:1e:fc:65:05:d4:b0:89:34:ca:6f:f4:d4:ce:
                    a9:37:95:6f:13:0e:e0:b3:19:b0:cc:63:c0:ab:33:
                    cb:a5:aa:f2:20:89:02:bb:b4:66:17:77:d5:68:a6:
                    a9:7a:37:21:f7:7d:92:a7:eb:b8:76:7a:a0:9c:9c:
                    0e:60:2d:d8:96:67:0c:39:2a:7a:ca:27:5d:cc:47:
                    68:3b:e6:1a:51:eb:52:83:dd:69:0c:56:8f:20:26:
                    3e:ef:03:71:99:fc:18:2b:63:7a:98:7b:44:ba:57:
                    ba:d4:63:00:d9:1f:05:56:67:1e:ad:f1:d0:1d:4d:
                    d3:f0:2c:0f:51:2f:b4:06:e3:9b:48:60:35:10:34:
                    c3:2d
                Exponent: 65537 (0x10001)
        X509v3 extensions:
            X509v3 Basic Constraints: 
                CA:FALSE
            Netscape Comment: 
                OpenSSL Generated Certificate
            X509v3 Subject Key Identifier: 
                D4:2B:FC:E3:DA:FF:63:D6:B8:5A:B3:77:68:F1:5F:2B:99:CD:04:A9
            X509v3 Authority Key Identifier: 
                keyid:C0:2C:B3:C6:96:26:48:D2:12:34:D0:37:AF:84:16:12:5B:FE:91:D7

    Signature Algorithm: sha1WithRSAEncryption
        a7:61:fa:33:a5:c5:86:91:82:dd:a9:c7:e0:83:81:7b:ed:d6:
        21:d2:be:ea:0a:30:74:d6:0f:d3:50:ab:93:55:eb:ee:1f:89:
        8e:50:03:84:58:26:da:b9:86:06:20:f4:72:16:ee:a6:d0:45:
        8b:a3:da:59:6e:a5:f6:ac:78:d8:74:aa:3c:5c:cd:88:db:71:
        99:d7:ac:25:fb:33:43:96:c0:bf:ff:15:0b:a7:8b:0d:f0:be:
        b2:34:67:5e:fc:be:6d:82:bc:7c:c9:27:d9:e9:f7:f3:ef:9c:
        df:4a:7b:ff:08:10:7c:40:8c:ef:95:28:1c:97:03:f7:74:fc:
        70:4c:2e:b3:39:c3:ce:2d:60:d5:35:43:60:97:d4:7b:1c:df:
        3d:14:93:e1:be:d4:31:df:0f:21:ab:86:a6:4a:21:c0:33:02:
        c6:40:2e:ac:00:0e:3c:1c:ad:94:ab:00:b8:1e:49:fc:47:12:
        c6:ae:c4:d7:9a:d1:dd:2e:27:7f:81:08:25:85:f3:4a:14:ab:
        86:32:e8:fa:2e:0f:08:bd:40:df:4e:93:b8:a4:24:71:ab:8f:
        0f:37:e0:61:a5:f4:39:21:82:93:89:fe:8d:06:d9:60:2f:e8:
        06:28:5c:19:8a:1f:4e:91:11:d6:94:9b:80:52:83:97:20:17:
        61:d8:0c:d6
-----BEGIN CERTIFICATE-----
MIIDrTCCApWgAwIBAgIBBTANBgkqhkiG9w0BAQUFADBbMQswCQYDVQQGEwJDSDEP
MA0GA1UECAwGWnVyaWNoMQ8wDQYDVQQHDAZadXJpY2gxEDAOBgNVBAoMB2lNb3Zp
ZXMxCzAJBgNVBAsMAkNBMQswCQYDVQQDDAJDQTAeFw0xNzExMjEyMDQ3MTlaFw0x
ODExMjEyMDQ3MTlaMFwxCzAJBgNVBAYTAkNIMQ8wDQYDVQQIDAZadXJpY2gxEDAO
BgNVBAoMB2lNb3ZpZXMxFzAVBgNVBAsMDkFkbWluaXN0cmF0aW9uMREwDwYDVQQD
DAhjYV9hZG1pbjCCASIwDQYJKoZIhvcNAQEBBQADggEPADCCAQoCggEBAK7PS8xK
eUmhS7WGyM88aa9JFRzEzh2pej+Ct4FJdJrOb++ZnB5OUWnirt3F5QhBdd80PoA5
huVUdYqvpEujrFQgr8T2TwGuCQqJlKCMzNYZn99iJlDXC3b55q4r95MCPrkY5427
3/52ILP4I7rjwAxcjG52HPU6r7Me/GUF1LCJNMpv9NTOqTeVbxMO4LMZsMxjwKsz
y6Wq8iCJAru0Zhd31WimqXo3Ifd9kqfruHZ6oJycDmAt2JZnDDkqesonXcxHaDvm
GlHrUoPdaQxWjyAmPu8DcZn8GCtjeph7RLpXutRjANkfBVZnHq3x0B1N0/AsD1Ev
tAbjm0hgNRA0wy0CAwEAAaN7MHkwCQYDVR0TBAIwADAsBglghkgBhvhCAQ0EHxYd
T3BlblNTTCBHZW5lcmF0ZWQgQ2VydGlmaWNhdGUwHQYDVR0OBBYEFNQr/OPa/2PW
uFqzd2jxXyuZzQSpMB8GA1UdIwQYMBaAFMAss8aWJkjSEjTQN6+EFhJb/pHXMA0G
CSqGSIb3DQEBBQUAA4IBAQCnYfozpcWGkYLdqcfgg4F77dYh0r7qCjB01g/TUKuT
VevuH4mOUAOEWCbauYYGIPRyFu6m0EWLo9pZbqX2rHjYdKo8XM2I23GZ16wl+zND
lsC//xULp4sN8L6yNGde/L5tgrx8ySfZ6ffz75zfSnv/CBB8QIzvlSgclwP3dPxw
TC6zOcPOLWDVNUNgl9R7HN89FJPhvtQx3w8hq4amSiHAMwLGQC6sAA48HK2UqwC4
Hkn8RxLGrsTXmtHdLid/gQglhfNKFKuGMuj6Lg8IvUDfTpO4pCRxq48PN+BhpfQ5
IYKTif6NBtlgL+gGKFwZih9OkRHWlJuAUoOXIBdh2AzW
-----END CERTIFICATE-----
