Certificate:
    Data:
        Version: 3 (0x2)
        Serial Number: 8 (0x8)
        Signature Algorithm: sha1WithRSAEncryption
        Issuer: C=CH, ST=Zurich, L=Zurich, O=iMovies, OU=CA, CN=CA
        Validity
            Not Before: Nov 15 14:14:08 2017 GMT
            Not After : Nov 15 14:14:08 2018 GMT
        Subject: C=CH, ST=Zurich, O=iMovies, OU=Infrastructure, CN=firewall
        Subject Public Key Info:
            Public Key Algorithm: rsaEncryption
            RSA Public Key: (2048 bit)
                Modulus (2048 bit):
                    00:bc:a3:35:22:b9:b4:09:92:f0:ec:6e:45:ba:75:
                    7c:88:3e:9d:c8:91:ad:8b:63:dd:cd:13:b6:78:90:
                    30:7b:a0:8a:65:e9:bf:ff:dd:69:3b:2c:84:16:90:
                    fb:84:2d:f6:3e:93:b9:2e:10:54:db:33:79:5e:03:
                    3c:d6:0b:21:e0:64:8c:e9:f6:14:f6:76:02:df:8a:
                    3e:32:61:0a:34:14:ba:13:d6:5f:ab:e6:02:0b:6d:
                    d7:0f:85:ca:f9:f3:64:a5:7e:27:ff:2a:fc:a4:a5:
                    f9:f8:a5:33:ce:d2:e9:92:36:a1:84:38:5b:86:18:
                    9e:ba:af:07:fa:b8:d3:91:da:ff:b1:ab:3d:cf:48:
                    38:4f:6a:a9:c1:bd:82:5f:e9:72:78:fe:f3:eb:58:
                    df:4c:a4:92:41:60:90:fd:e3:cf:79:9f:bd:67:a3:
                    6a:b2:21:ed:fb:38:a9:b7:03:31:5c:ad:3d:6e:4d:
                    5d:36:d9:a1:17:73:6d:4e:f2:fa:5b:6e:bf:57:e6:
                    3d:92:b9:03:02:25:b8:49:51:f3:81:51:8f:9e:1b:
                    0d:56:31:7d:ec:1e:1d:d5:c7:10:a9:9d:9f:8d:a3:
                    d1:a1:9a:1f:5e:f3:58:50:a8:22:b2:92:d6:6e:84:
                    12:ac:cc:a6:f1:b8:db:e2:56:bc:4e:6a:f0:39:c8:
                    b5:37
                Exponent: 65537 (0x10001)
        X509v3 extensions:
            X509v3 Basic Constraints: 
                CA:FALSE
            Netscape Comment: 
                OpenSSL Generated Certificate
            X509v3 Subject Key Identifier: 
                D0:D2:1B:D5:B5:F9:BA:3E:29:9F:00:82:46:4C:CD:81:07:04:46:19
            X509v3 Authority Key Identifier: 
                keyid:C0:2C:B3:C6:96:26:48:D2:12:34:D0:37:AF:84:16:12:5B:FE:91:D7

    Signature Algorithm: sha1WithRSAEncryption
        08:5c:8f:8a:d9:bf:36:10:e2:e6:73:84:c6:03:37:a2:de:ca:
        99:4d:39:3a:d5:6e:e0:8a:9d:88:21:16:4f:10:ff:71:d5:47:
        3f:8c:c6:39:09:97:a8:fa:8f:4b:50:bb:95:b9:70:42:df:9a:
        37:83:5f:4b:7a:2c:03:3a:f7:9a:bc:2d:74:fc:4a:0c:c4:3d:
        3b:95:6d:72:fa:09:38:ab:8a:c8:b2:a0:a2:1e:d0:db:a7:cb:
        ba:b5:a3:13:85:cc:de:31:eb:d9:c0:80:fd:6a:bc:dc:83:b2:
        65:bb:f4:5b:39:d1:4b:31:c5:a2:8e:12:d1:00:9f:82:33:52:
        e7:ed:77:ba:07:0c:30:a5:03:af:79:1a:c7:09:ca:36:3a:f4:
        95:ff:f5:fc:44:1e:e1:f7:51:c8:2a:40:12:fc:28:a4:a0:46:
        99:e6:b3:54:0c:59:67:a8:64:55:da:82:3c:e8:ef:19:a2:b3:
        f9:ac:61:15:5f:72:d5:10:41:e2:07:4d:4c:a2:c2:cd:25:e0:
        53:04:2d:fc:78:5e:34:08:6a:83:28:58:df:81:ca:0e:97:1a:
        18:9b:47:10:5d:c9:64:cf:67:99:78:e1:aa:7c:7b:db:7c:c1:
        de:3b:be:8c:e8:e6:5f:ed:51:df:2e:b5:28:70:07:7d:24:e6:
        3a:fb:ab:81
-----BEGIN CERTIFICATE-----
MIIDrTCCApWgAwIBAgIBCDANBgkqhkiG9w0BAQUFADBbMQswCQYDVQQGEwJDSDEP
MA0GA1UECAwGWnVyaWNoMQ8wDQYDVQQHDAZadXJpY2gxEDAOBgNVBAoMB2lNb3Zp
ZXMxCzAJBgNVBAsMAkNBMQswCQYDVQQDDAJDQTAeFw0xNzExMTUxNDE0MDhaFw0x
ODExMTUxNDE0MDhaMFwxCzAJBgNVBAYTAkNIMQ8wDQYDVQQIDAZadXJpY2gxEDAO
BgNVBAoMB2lNb3ZpZXMxFzAVBgNVBAsMDkluZnJhc3RydWN0dXJlMREwDwYDVQQD
DAhmaXJld2FsbDCCASIwDQYJKoZIhvcNAQEBBQADggEPADCCAQoCggEBALyjNSK5
tAmS8OxuRbp1fIg+nciRrYtj3c0TtniQMHugimXpv//daTsshBaQ+4Qt9j6TuS4Q
VNszeV4DPNYLIeBkjOn2FPZ2At+KPjJhCjQUuhPWX6vmAgtt1w+FyvnzZKV+J/8q
/KSl+filM87S6ZI2oYQ4W4YYnrqvB/q405Ha/7GrPc9IOE9qqcG9gl/pcnj+8+tY
30ykkkFgkP3jz3mfvWejarIh7fs4qbcDMVytPW5NXTbZoRdzbU7y+ltuv1fmPZK5
AwIluElR84FRj54bDVYxfeweHdXHEKmdn42j0aGaH17zWFCoIrKS1m6EEqzMpvG4
2+JWvE5q8DnItTcCAwEAAaN7MHkwCQYDVR0TBAIwADAsBglghkgBhvhCAQ0EHxYd
T3BlblNTTCBHZW5lcmF0ZWQgQ2VydGlmaWNhdGUwHQYDVR0OBBYEFNDSG9W1+bo+
KZ8AgkZMzYEHBEYZMB8GA1UdIwQYMBaAFMAss8aWJkjSEjTQN6+EFhJb/pHXMA0G
CSqGSIb3DQEBBQUAA4IBAQAIXI+K2b82EOLmc4TGAzei3sqZTTk61W7gip2IIRZP
EP9x1Uc/jMY5CZeo+o9LULuVuXBC35o3g19LeiwDOveavC10/EoMxD07lW1y+gk4
q4rIsqCiHtDbp8u6taMThczeMevZwID9arzcg7Jlu/RbOdFLMcWijhLRAJ+CM1Ln
7Xe6BwwwpQOveRrHCco2OvSV//X8RB7h91HIKkAS/CikoEaZ5rNUDFlnqGRV2oI8
6O8ZorP5rGEVX3LVEEHiB01MosLNJeBTBC38eF40CGqDKFjfgcoOlxoYm0cQXclk
z2eZeOGqfHvbfMHeO76M6OZf7VHfLrUocAd9JOY6+6uB
-----END CERTIFICATE-----
