Certificate:
    Data:
        Version: 3 (0x2)
        Serial Number: 9 (0x9)
        Signature Algorithm: sha1WithRSAEncryption
        Issuer: C=CH, ST=Zurich, L=Zurich, O=iMovies, OU=CA, CN=CA
        Validity
            Not Before: Nov 15 14:14:37 2017 GMT
            Not After : Nov 15 14:14:37 2018 GMT
        Subject: C=CH, ST=Zurich, O=iMovies, OU=Infrastructure, CN=database
        Subject Public Key Info:
            Public Key Algorithm: rsaEncryption
            RSA Public Key: (2048 bit)
                Modulus (2048 bit):
                    00:bb:eb:80:f0:39:67:9f:7e:56:2a:ca:d1:81:4f:
                    36:f8:ce:60:d5:de:7f:dc:11:b9:70:85:f5:c4:57:
                    7f:03:ce:2a:06:0a:d1:c1:8e:aa:9d:95:16:ba:63:
                    1a:31:9d:9e:ba:3d:98:68:32:62:de:14:99:66:df:
                    ca:67:a3:8e:a9:25:67:83:a7:a7:6c:14:aa:c3:4c:
                    5d:79:99:b3:fb:cb:b1:7f:d5:65:1d:a3:8e:66:ed:
                    46:8f:9e:9f:70:e1:2e:ef:d8:63:d6:5e:d5:63:dc:
                    b0:01:aa:df:99:a8:1a:f6:3c:25:8f:f1:1d:68:c4:
                    a0:ed:5e:a8:43:0b:ca:bb:14:05:4f:62:19:c0:ef:
                    80:89:5b:c3:bc:5b:2c:21:d3:f3:cc:3a:bf:96:c8:
                    5d:1d:67:82:3a:36:3e:07:5e:59:ba:6a:ca:df:9f:
                    e4:ba:76:ab:b1:ea:e5:d9:4f:57:23:10:cf:d6:07:
                    75:aa:aa:db:76:76:7a:5b:17:c9:be:5b:db:c3:9b:
                    01:a6:0c:81:1e:c0:66:f6:b3:72:14:d3:31:4e:29:
                    1c:e2:e1:28:26:e6:89:e2:97:81:c5:17:19:5f:7b:
                    5f:13:5a:90:61:1d:f1:da:bc:74:90:84:c6:20:b9:
                    d5:8c:42:e7:05:ca:64:75:69:f3:bd:a0:be:26:fc:
                    e1:3b
                Exponent: 65537 (0x10001)
        X509v3 extensions:
            X509v3 Basic Constraints: 
                CA:FALSE
            Netscape Comment: 
                OpenSSL Generated Certificate
            X509v3 Subject Key Identifier: 
                08:96:6D:45:EA:6D:8F:52:5B:15:8A:A0:4B:72:7F:76:1B:B7:37:93
            X509v3 Authority Key Identifier: 
                keyid:C0:2C:B3:C6:96:26:48:D2:12:34:D0:37:AF:84:16:12:5B:FE:91:D7

    Signature Algorithm: sha1WithRSAEncryption
        58:1c:12:d0:04:23:7d:af:47:5c:f8:18:46:35:9a:51:69:32:
        cf:df:b7:1a:0c:d7:8d:b9:69:42:76:c7:0e:54:34:11:a2:69:
        03:a8:d1:10:16:20:e0:12:d5:c5:12:df:8a:d8:47:d6:be:b3:
        19:0e:ea:12:1d:7b:1c:20:b9:43:13:78:81:f6:c2:35:f7:eb:
        33:87:0f:b0:21:6a:23:f6:cf:a3:c0:14:ae:55:1f:20:a7:47:
        86:6d:d8:da:d0:84:3d:a6:8a:31:9a:c2:a0:e6:3d:81:9e:e7:
        31:5a:d3:6c:78:21:0e:a7:02:df:0c:11:a2:90:f0:03:65:62:
        9b:44:3b:45:5c:7a:03:6d:28:3a:6e:6f:1e:dd:8e:f9:06:8d:
        aa:ef:a3:9f:79:d8:7d:62:55:41:85:8f:6f:c3:9d:57:17:94:
        4d:cc:46:d4:3b:a1:91:43:25:54:3e:e7:4b:7f:13:65:b4:a7:
        21:58:10:9f:b9:6e:e8:20:89:41:2c:01:73:e9:e6:00:5c:9d:
        22:37:89:50:56:e4:95:72:61:de:cd:67:4a:8f:b6:78:a2:32:
        ed:15:72:f7:37:60:47:da:88:52:2b:e3:38:5c:58:e8:3e:dc:
        f4:36:db:1d:88:ee:8c:c0:8a:b3:80:a2:d6:2a:45:a7:87:e8:
        ab:06:de:9a
-----BEGIN CERTIFICATE-----
MIIDrTCCApWgAwIBAgIBCTANBgkqhkiG9w0BAQUFADBbMQswCQYDVQQGEwJDSDEP
MA0GA1UECAwGWnVyaWNoMQ8wDQYDVQQHDAZadXJpY2gxEDAOBgNVBAoMB2lNb3Zp
ZXMxCzAJBgNVBAsMAkNBMQswCQYDVQQDDAJDQTAeFw0xNzExMTUxNDE0MzdaFw0x
ODExMTUxNDE0MzdaMFwxCzAJBgNVBAYTAkNIMQ8wDQYDVQQIDAZadXJpY2gxEDAO
BgNVBAoMB2lNb3ZpZXMxFzAVBgNVBAsMDkluZnJhc3RydWN0dXJlMREwDwYDVQQD
DAhkYXRhYmFzZTCCASIwDQYJKoZIhvcNAQEBBQADggEPADCCAQoCggEBALvrgPA5
Z59+VirK0YFPNvjOYNXef9wRuXCF9cRXfwPOKgYK0cGOqp2VFrpjGjGdnro9mGgy
Yt4UmWbfymejjqklZ4Onp2wUqsNMXXmZs/vLsX/VZR2jjmbtRo+en3DhLu/YY9Ze
1WPcsAGq35moGvY8JY/xHWjEoO1eqEMLyrsUBU9iGcDvgIlbw7xbLCHT88w6v5bI
XR1ngjo2PgdeWbpqyt+f5Lp2q7Hq5dlPVyMQz9YHdaqq23Z2elsXyb5b28ObAaYM
gR7AZvazchTTMU4pHOLhKCbmieKXgcUXGV97XxNakGEd8dq8dJCExiC51YxC5wXK
ZHVp872gvib84TsCAwEAAaN7MHkwCQYDVR0TBAIwADAsBglghkgBhvhCAQ0EHxYd
T3BlblNTTCBHZW5lcmF0ZWQgQ2VydGlmaWNhdGUwHQYDVR0OBBYEFAiWbUXqbY9S
WxWKoEtyf3YbtzeTMB8GA1UdIwQYMBaAFMAss8aWJkjSEjTQN6+EFhJb/pHXMA0G
CSqGSIb3DQEBBQUAA4IBAQBYHBLQBCN9r0dc+BhGNZpRaTLP37caDNeNuWlCdscO
VDQRomkDqNEQFiDgEtXFEt+K2EfWvrMZDuoSHXscILlDE3iB9sI19+szhw+wIWoj
9s+jwBSuVR8gp0eGbdja0IQ9pooxmsKg5j2BnucxWtNseCEOpwLfDBGikPADZWKb
RDtFXHoDbSg6bm8e3Y75Bo2q76Ofedh9YlVBhY9vw51XF5RNzEbUO6GRQyVUPudL
fxNltKchWBCfuW7oIIlBLAFz6eYAXJ0iN4lQVuSVcmHezWdKj7Z4ojLtFXL3N2BH
2ohSK+M4XFjoPtz0NtsdiO6MwIqzgKLWKkWnh+irBt6a
-----END CERTIFICATE-----
