Certificate:
    Data:
        Version: 3 (0x2)
        Serial Number: 10 (0xa)
        Signature Algorithm: sha1WithRSAEncryption
        Issuer: C=CH, ST=Zurich, L=Zurich, O=iMovies, OU=CA, CN=CA
        Validity
            Not Before: Nov 15 14:16:31 2017 GMT
            Not After : Nov 15 14:16:31 2018 GMT
        Subject: C=CH, ST=Zurich, O=iMovies, OU=Administration, CN=sys_admin
        Subject Public Key Info:
            Public Key Algorithm: rsaEncryption
            RSA Public Key: (2048 bit)
                Modulus (2048 bit):
                    00:c1:f9:a2:8d:e5:61:73:da:f5:3a:f0:b9:4b:64:
                    69:c5:84:76:66:6e:62:7b:ec:3d:b2:dc:21:3b:1d:
                    57:e6:71:00:4b:28:a6:33:33:58:29:64:ee:df:81:
                    71:54:48:4e:ce:12:be:35:17:17:b4:f9:d4:0c:ef:
                    29:86:d6:54:83:94:ee:a0:64:64:f7:31:a1:bd:8b:
                    2d:7c:a7:e7:ec:97:de:71:18:f6:e5:c9:5c:0a:62:
                    0e:49:71:a7:82:ef:1a:09:fc:7c:ca:d1:ae:a9:98:
                    e1:bb:81:f0:ec:06:44:31:6b:15:28:f1:d4:bd:c8:
                    5b:1e:cc:9f:64:15:07:2d:f6:99:a7:3b:58:3b:8a:
                    21:78:a4:91:2f:f0:7e:c7:c4:e9:32:bd:ce:d7:5b:
                    0f:66:5f:cb:09:28:55:6a:c2:9e:b4:1f:9d:73:1b:
                    99:35:37:9a:d3:01:0b:26:be:f7:d6:45:19:dc:51:
                    0a:4d:67:19:7b:2d:b5:d8:88:88:65:e3:6c:60:75:
                    e0:63:0f:c6:fe:f1:2b:74:79:bc:ea:41:48:38:b1:
                    8e:86:72:39:21:26:8f:3a:37:a2:11:33:25:03:59:
                    f3:a6:e8:07:fe:18:2d:f9:cc:fa:f5:27:89:90:86:
                    f3:03:5d:02:24:09:f2:31:f0:c5:f2:72:c7:79:69:
                    00:99
                Exponent: 65537 (0x10001)
        X509v3 extensions:
            X509v3 Basic Constraints: 
                CA:FALSE
            Netscape Comment: 
                OpenSSL Generated Certificate
            X509v3 Subject Key Identifier: 
                E2:5C:D8:93:99:DC:45:FB:4B:22:57:5D:77:78:A8:84:5D:C3:0A:8C
            X509v3 Authority Key Identifier: 
                keyid:C0:2C:B3:C6:96:26:48:D2:12:34:D0:37:AF:84:16:12:5B:FE:91:D7

    Signature Algorithm: sha1WithRSAEncryption
        a6:c9:68:b7:de:d1:f2:4d:b6:6e:bf:da:fc:ef:a0:cd:a6:f6:
        7c:f1:c4:a5:5d:21:b3:28:7b:90:1a:b9:91:9a:fe:4b:9d:7e:
        6f:c3:f2:94:0c:cf:a4:be:03:37:fc:43:f1:83:1c:5b:f0:5c:
        a3:11:86:da:55:73:6b:a0:29:13:91:1f:5d:24:71:3a:8f:60:
        f4:58:d2:f9:8c:6c:ba:15:13:77:2a:8c:25:54:3d:ad:ca:a2:
        6d:3a:a8:2e:ea:b6:07:31:79:d3:fe:24:c7:ef:8f:fb:a8:e3:
        47:56:6b:c6:6e:5f:f4:80:b4:3e:8b:50:58:50:7c:1b:7c:38:
        18:45:de:55:40:f7:b7:dd:5d:3b:93:6f:1b:6f:80:6b:c2:70:
        98:5b:ea:d5:10:40:ff:09:62:74:a9:ba:ca:46:f6:ad:7b:5c:
        1b:6d:ab:e0:0b:4f:9f:06:7f:a8:be:ad:04:39:2b:1e:8d:3e:
        f7:32:4b:24:f9:1f:52:40:fb:b8:3c:6e:0a:2b:e9:b8:60:bf:
        db:01:28:a3:4d:d9:ca:08:48:95:e3:15:c8:90:9f:e0:9a:d5:
        e0:93:48:ce:89:94:83:17:21:f3:3b:a6:e8:3f:f3:6e:1c:fa:
        35:f2:42:61:dd:ea:d1:2f:9d:4b:da:80:d9:f5:9f:15:5e:35:
        a7:8f:1d:64
-----BEGIN CERTIFICATE-----
MIIDrjCCApagAwIBAgIBCjANBgkqhkiG9w0BAQUFADBbMQswCQYDVQQGEwJDSDEP
MA0GA1UECAwGWnVyaWNoMQ8wDQYDVQQHDAZadXJpY2gxEDAOBgNVBAoMB2lNb3Zp
ZXMxCzAJBgNVBAsMAkNBMQswCQYDVQQDDAJDQTAeFw0xNzExMTUxNDE2MzFaFw0x
ODExMTUxNDE2MzFaMF0xCzAJBgNVBAYTAkNIMQ8wDQYDVQQIDAZadXJpY2gxEDAO
BgNVBAoMB2lNb3ZpZXMxFzAVBgNVBAsMDkFkbWluaXN0cmF0aW9uMRIwEAYDVQQD
DAlzeXNfYWRtaW4wggEiMA0GCSqGSIb3DQEBAQUAA4IBDwAwggEKAoIBAQDB+aKN
5WFz2vU68LlLZGnFhHZmbmJ77D2y3CE7HVfmcQBLKKYzM1gpZO7fgXFUSE7OEr41
Fxe0+dQM7ymG1lSDlO6gZGT3MaG9iy18p+fsl95xGPblyVwKYg5JcaeC7xoJ/HzK
0a6pmOG7gfDsBkQxaxUo8dS9yFsezJ9kFQct9pmnO1g7iiF4pJEv8H7HxOkyvc7X
Ww9mX8sJKFVqwp60H51zG5k1N5rTAQsmvvfWRRncUQpNZxl7LbXYiIhl42xgdeBj
D8b+8St0ebzqQUg4sY6GcjkhJo86N6IRMyUDWfOm6Af+GC35zPr1J4mQhvMDXQIk
CfIx8MXycsd5aQCZAgMBAAGjezB5MAkGA1UdEwQCMAAwLAYJYIZIAYb4QgENBB8W
HU9wZW5TU0wgR2VuZXJhdGVkIENlcnRpZmljYXRlMB0GA1UdDgQWBBTiXNiTmdxF
+0siV113eKiEXcMKjDAfBgNVHSMEGDAWgBTALLPGliZI0hI00DevhBYSW/6R1zAN
BgkqhkiG9w0BAQUFAAOCAQEApslot97R8k22br/a/O+gzab2fPHEpV0hsyh7kBq5
kZr+S51+b8PylAzPpL4DN/xD8YMcW/BcoxGG2lVza6ApE5EfXSRxOo9g9FjS+Yxs
uhUTdyqMJVQ9rcqibTqoLuq2BzF50/4kx++P+6jjR1Zrxm5f9IC0PotQWFB8G3w4
GEXeVUD3t91dO5NvG2+Aa8JwmFvq1RBA/wlidKm6ykb2rXtcG22r4AtPnwZ/qL6t
BDkrHo0+9zJLJPkfUkD7uDxuCivpuGC/2wEoo03ZyghIleMVyJCf4JrV4JNIzomU
gxch8zum6D/zbhz6NfJCYd3q0S+dS9qA2fWfFV41p48dZA==
-----END CERTIFICATE-----
